---
triple:          'arm64-apple-darwin'
binary-path:     wReceiver-opt
relocations:
  - { offsetInCU: 0x6B, offset: 0x6B, size: 0x8, addend: 0x0, symName: __ZL9crc32_tab, symObjAddr: 0x7CC4, symBinAddr: 0x100010000, symSize: 0x0 }
  - { offsetInCU: 0x2FD2, offset: 0x2FD2, size: 0x8, addend: 0x0, symName: __ZNSt3__124__put_character_sequenceB8ue170006IcNS_11char_traitsIcEEEERNS_13basic_ostreamIT_T0_EES7_PKS4_m, symObjAddr: 0x1E6C, symBinAddr: 0x1000057E0, symSize: 0x1F4 }
  - { offsetInCU: 0x3ECB, offset: 0x3ECB, size: 0x8, addend: 0x0, symName: __ZNSt3__16copy_nB8ue170006IPKcmPcEENS_9enable_ifIXsr37__has_random_access_iterator_categoryIT_EE5valueET1_E4typeES5_T0_S6_, symObjAddr: 0x3004, symBinAddr: 0x100006978, symSize: 0x44 }
  - { offsetInCU: 0x8816, offset: 0x8816, size: 0x8, addend: 0x0, symName: __ZNSt3__1lsB8ue170006INS_11char_traitsIcEEEERNS_13basic_ostreamIcT_EES6_PKc, symObjAddr: 0x10C, symBinAddr: 0x100003A80, symSize: 0x48 }
  - { offsetInCU: 0x885C, offset: 0x885C, size: 0x8, addend: 0x0, symName: __ZNSt3__14endlB8ue170006IcNS_11char_traitsIcEEEERNS_13basic_ostreamIT_T0_EES7_, symObjAddr: 0x180, symBinAddr: 0x100003AF4, symSize: 0x58 }
  - { offsetInCU: 0x889C, offset: 0x889C, size: 0x8, addend: 0x0, symName: __ZNSt3__1plB8ue170006IcNS_11char_traitsIcEENS_9allocatorIcEEEENS_12basic_stringIT_T0_T1_EERKS9_PKS6_, symObjAddr: 0xA18, symBinAddr: 0x10000438C, symSize: 0x11C }
  - { offsetInCU: 0x893D, offset: 0x893D, size: 0x8, addend: 0x0, symName: __ZNSt3__1plB8ue170006IcNS_11char_traitsIcEENS_9allocatorIcEEEENS_12basic_stringIT_T0_T1_EERKS9_SB_, symObjAddr: 0xB34, symBinAddr: 0x1000044A8, symSize: 0x134 }
  - { offsetInCU: 0x91EF, offset: 0x91EF, size: 0x8, addend: 0x0, symName: __ZNSt3__1lsB8ue170006IcNS_11char_traitsIcEENS_9allocatorIcEEEERNS_13basic_ostreamIT_T0_EES9_RKNS_12basic_stringIS6_S7_T1_EE, symObjAddr: 0xE18, symBinAddr: 0x10000478C, symSize: 0x4C }
  - { offsetInCU: 0x9252, offset: 0x9252, size: 0x8, addend: 0x0, symName: __ZNSt3__130__libcpp_is_constant_evaluatedB8ue170006Ev, symObjAddr: 0x1A74, symBinAddr: 0x1000053E8, symSize: 0xC }
  - { offsetInCU: 0x926F, offset: 0x926F, size: 0x8, addend: 0x0, symName: __ZNSt3__117__libcpp_allocateB8ue170006Emm, symObjAddr: 0x1D6C, symBinAddr: 0x1000056E0, symSize: 0x28 }
  - { offsetInCU: 0x92AC, offset: 0x92AC, size: 0x8, addend: 0x0, symName: __ZNSt3__121__libcpp_operator_newB8ue170006IJmEEEPvDpT_, symObjAddr: 0x1DA8, symBinAddr: 0x10000571C, symSize: 0x24 }
  - { offsetInCU: 0x92E5, offset: 0x92E5, size: 0x8, addend: 0x0, symName: __ZNSt3__116__pad_and_outputB8ue170006IcNS_11char_traitsIcEEEENS_19ostreambuf_iteratorIT_T0_EES6_PKS4_S8_S8_RNS_8ios_baseES4_, symObjAddr: 0x20C4, symBinAddr: 0x100005A38, symSize: 0x248 }
  - { offsetInCU: 0x93B4, offset: 0x93B4, size: 0x8, addend: 0x0, symName: __ZNSt3__112__to_addressB8ue170006IKcEEPT_S3_, symObjAddr: 0x253C, symBinAddr: 0x100005EB0, symSize: 0x14 }
  - { offsetInCU: 0x941C, offset: 0x941C, size: 0x8, addend: 0x0, symName: __ZNSt3__19use_facetB8ue170006INS_5ctypeIcEEEERKT_RKNS_6localeE, symObjAddr: 0x2814, symBinAddr: 0x100006188, symSize: 0x2C }
  - { offsetInCU: 0x98E9, offset: 0x98E9, size: 0x8, addend: 0x0, symName: __ZNSt3__118__constexpr_strlenB8ue170006EPKc, symObjAddr: 0x28AC, symBinAddr: 0x100006220, symSize: 0x24 }
  - { offsetInCU: 0x9915, offset: 0x9915, size: 0x8, addend: 0x0, symName: __ZNSt3__112__to_addressB8ue170006IcEEPT_S2_, symObjAddr: 0x2994, symBinAddr: 0x100006308, symSize: 0x14 }
  - { offsetInCU: 0x9B4C, offset: 0x9B4C, size: 0x8, addend: 0x0, symName: __ZNSt3__120__throw_length_errorB8ue170006EPKc, symObjAddr: 0x2EBC, symBinAddr: 0x100006830, symSize: 0x64 }
  - { offsetInCU: 0x9BA9, offset: 0x9BA9, size: 0x8, addend: 0x0, symName: __ZNSt3__14copyB8ue170006IPKcPcEET0_T_S5_S4_, symObjAddr: 0x3048, symBinAddr: 0x1000069BC, symSize: 0x40 }
  - { offsetInCU: 0x9C03, offset: 0x9C03, size: 0x8, addend: 0x0, symName: __ZNSt3__16__copyB8ue170006INS_17_ClassicAlgPolicyEPKcS3_PcEENS_4pairIT0_T2_EES6_T1_S7_, symObjAddr: 0x3088, symBinAddr: 0x1000069FC, symSize: 0x44 }
  - { offsetInCU: 0x9C6F, offset: 0x9C6F, size: 0x8, addend: 0x0, symName: __ZNSt3__123__dispatch_copy_or_moveB8ue170006INS_17_ClassicAlgPolicyENS_11__copy_loopIS1_EENS_14__copy_trivialEPKcS6_PcEENS_4pairIT2_T4_EES9_T3_SA_, symObjAddr: 0x30CC, symBinAddr: 0x100006A40, symSize: 0x44 }
  - { offsetInCU: 0x9CED, offset: 0x9CED, size: 0x8, addend: 0x0, symName: __ZNSt3__121__unwrap_and_dispatchB8ue170006INS_10__overloadINS_11__copy_loopINS_17_ClassicAlgPolicyEEENS_14__copy_trivialEEEPKcS8_PcLi0EEENS_4pairIT0_T2_EESB_T1_SC_, symObjAddr: 0x3110, symBinAddr: 0x100006A84, symSize: 0xB4 }
  - { offsetInCU: 0x9D7B, offset: 0x9D7B, size: 0x8, addend: 0x0, symName: __ZNSt3__114__unwrap_rangeB8ue170006IPKcS2_EENS_4pairIT0_S4_EET_S6_, symObjAddr: 0x31C4, symBinAddr: 0x100006B38, symSize: 0x60 }
  - { offsetInCU: 0x9EBA, offset: 0x9EBA, size: 0x8, addend: 0x0, symName: __ZNSt3__113__unwrap_iterB8ue170006IPcNS_18__unwrap_iter_implIS1_Lb1EEELi0EEEDTclsrT0_8__unwrapclsr3stdE7declvalIT_EEEES5_, symObjAddr: 0x326C, symBinAddr: 0x100006BE0, symSize: 0x24 }
  - { offsetInCU: 0x9EFE, offset: 0x9EFE, size: 0x8, addend: 0x0, symName: __ZNSt3__19make_pairB8ue170006IPKcPcEENS_4pairINS_18__unwrap_ref_decayIT_E4typeENS5_IT0_E4typeEEEOS6_OS9_, symObjAddr: 0x3290, symBinAddr: 0x100006C04, symSize: 0x38 }
  - { offsetInCU: 0x9F4D, offset: 0x9F4D, size: 0x8, addend: 0x0, symName: __ZNSt3__114__rewrap_rangeB8ue170006IPKcS2_EET_S3_T0_, symObjAddr: 0x32C8, symBinAddr: 0x100006C3C, symSize: 0x2C }
  - { offsetInCU: 0x9F99, offset: 0x9F99, size: 0x8, addend: 0x0, symName: __ZNSt3__113__rewrap_iterB8ue170006IPcS1_NS_18__unwrap_iter_implIS1_Lb1EEEEET_S4_T0_, symObjAddr: 0x32F4, symBinAddr: 0x100006C68, symSize: 0x50 }
  - { offsetInCU: 0x9FEE, offset: 0x9FEE, size: 0x8, addend: 0x0, symName: __ZNSt3__19make_pairB8ue170006IPKcS2_EENS_4pairINS_18__unwrap_ref_decayIT_E4typeENS4_IT0_E4typeEEEOS5_OS8_, symObjAddr: 0x3344, symBinAddr: 0x100006CB8, symSize: 0x38 }
  - { offsetInCU: 0xA03D, offset: 0xA03D, size: 0x8, addend: 0x0, symName: __ZNSt3__113__unwrap_iterB8ue170006IPKcNS_18__unwrap_iter_implIS2_Lb1EEELi0EEEDTclsrT0_8__unwrapclsr3stdE7declvalIT_EEEES6_, symObjAddr: 0x337C, symBinAddr: 0x100006CF0, symSize: 0x24 }
  - { offsetInCU: 0xA181, offset: 0xA181, size: 0x8, addend: 0x0, symName: __ZNSt3__119__copy_trivial_implB8ue170006IKccEENS_4pairIPT_PT0_EES4_S4_S6_, symObjAddr: 0x3434, symBinAddr: 0x100006DA8, symSize: 0x78 }
  - { offsetInCU: 0xA1E9, offset: 0xA1E9, size: 0x8, addend: 0x0, symName: __ZNSt3__119__constexpr_memmoveB8ue170006IcKcLi0EEEPT_S3_PT0_NS_15__element_countE, symObjAddr: 0x34AC, symBinAddr: 0x100006E20, symSize: 0xA0 }
  - { offsetInCU: 0xA257, offset: 0xA257, size: 0x8, addend: 0x0, symName: __ZNSt3__19make_pairB8ue170006IRPKcPcEENS_4pairINS_18__unwrap_ref_decayIT_E4typeENS6_IT0_E4typeEEEOS7_OSA_, symObjAddr: 0x354C, symBinAddr: 0x100006EC0, symSize: 0x38 }
  - { offsetInCU: 0xA2F9, offset: 0xA2F9, size: 0x8, addend: 0x0, symName: __ZNSt3__113__rewrap_iterB8ue170006IPKcS2_NS_18__unwrap_iter_implIS2_Lb1EEEEET_S5_T0_, symObjAddr: 0x3618, symBinAddr: 0x100006F8C, symSize: 0x50 }
  - { offsetInCU: 0xA34E, offset: 0xA34E, size: 0x8, addend: 0x0, symName: __ZNSt3__16fill_nB8ue170006IPcmcEET_S2_T0_RKT1_, symObjAddr: 0x36F8, symBinAddr: 0x10000706C, symSize: 0x44 }
  - { offsetInCU: 0xA3B1, offset: 0xA3B1, size: 0x8, addend: 0x0, symName: __ZNSt3__18__fill_nB8ue170006IPcmcEET_S2_T0_RKT1_, symObjAddr: 0x373C, symBinAddr: 0x1000070B0, symSize: 0x64 }
  - { offsetInCU: 0xA414, offset: 0xA414, size: 0x8, addend: 0x0, symName: __ZNSt3__121__convert_to_integralB8ue170006Em, symObjAddr: 0x37A0, symBinAddr: 0x100007114, symSize: 0x14 }
  - { offsetInCU: 0xA473, offset: 0xA473, size: 0x8, addend: 0x0, symName: __ZNSt3__119__libcpp_deallocateB8ue170006EPvmm, symObjAddr: 0x4058, symBinAddr: 0x1000079CC, symSize: 0x30 }
  - { offsetInCU: 0xA4BB, offset: 0xA4BB, size: 0x8, addend: 0x0, symName: __ZNSt3__127__do_deallocate_handle_sizeB8ue170006IJEEEvPvmDpT_, symObjAddr: 0x4088, symBinAddr: 0x1000079FC, symSize: 0x28 }
  - { offsetInCU: 0xA4F9, offset: 0xA4F9, size: 0x8, addend: 0x0, symName: __ZNSt3__124__libcpp_operator_deleteB8ue170006IJPvEEEvDpT_, symObjAddr: 0x40B0, symBinAddr: 0x100007A24, symSize: 0x24 }
  - { offsetInCU: 0xA54C, offset: 0xA54C, size: 0x8, addend: 0x0, symName: __ZNSt3__127__tree_balance_after_insertB8ue170006IPNS_16__tree_node_baseIPvEEEEvT_S5_, symObjAddr: 0x4D10, symBinAddr: 0x100008684, symSize: 0x340 }
  - { offsetInCU: 0xA5C0, offset: 0xA5C0, size: 0x8, addend: 0x0, symName: __ZNSt3__120__tree_is_left_childB8ue170006IPNS_16__tree_node_baseIPvEEEEbT_, symObjAddr: 0x5090, symBinAddr: 0x100008A04, symSize: 0x2C }
  - { offsetInCU: 0xA5F5, offset: 0xA5F5, size: 0x8, addend: 0x0, symName: __ZNSt3__118__tree_left_rotateB8ue170006IPNS_16__tree_node_baseIPvEEEEvT_, symObjAddr: 0x50BC, symBinAddr: 0x100008A30, symSize: 0xEC }
  - { offsetInCU: 0xA637, offset: 0xA637, size: 0x8, addend: 0x0, symName: __ZNSt3__119__tree_right_rotateB8ue170006IPNS_16__tree_node_baseIPvEEEEvT_, symObjAddr: 0x51A8, symBinAddr: 0x100008B1C, symSize: 0xCC }
  - { offsetInCU: 0xA679, offset: 0xA679, size: 0x8, addend: 0x0, symName: __ZNSt3__1eqB8ue170006ERKNS_15__tree_iteratorINS_12__value_typeIjNS_6vectorIcNS_9allocatorIcEEEEEEPNS_11__tree_nodeIS6_PvEElEESD_, symObjAddr: 0x5664, symBinAddr: 0x100008FD8, symSize: 0x30 }
  - { offsetInCU: 0xA6B6, offset: 0xA6B6, size: 0x8, addend: 0x0, symName: __ZNSt3__1neB8ue170006ERKNS_15__tree_iteratorINS_12__value_typeIjNS_6vectorIcNS_9allocatorIcEEEEEEPNS_11__tree_nodeIS6_PvEElEESD_, symObjAddr: 0x5838, symBinAddr: 0x1000091AC, symSize: 0x34 }
  - { offsetInCU: 0xA6F3, offset: 0xA6F3, size: 0x8, addend: 0x0, symName: __ZNSt3__113__tree_removeB8ue170006IPNS_16__tree_node_baseIPvEEEEvT_S5_, symObjAddr: 0x5A74, symBinAddr: 0x1000093E8, symSize: 0x6E0 }
  - { offsetInCU: 0xA771, offset: 0xA771, size: 0x8, addend: 0x0, symName: __ZNSt3__116__tree_next_iterB8ue170006IPNS_15__tree_end_nodeIPNS_16__tree_node_baseIPvEEEES5_EET_T0_, symObjAddr: 0x6174, symBinAddr: 0x100009AE8, symSize: 0x80 }
  - { offsetInCU: 0xA7AF, offset: 0xA7AF, size: 0x8, addend: 0x0, symName: __ZNSt3__110__tree_minB8ue170006IPNS_16__tree_node_baseIPvEEEET_S5_, symObjAddr: 0x61F4, symBinAddr: 0x100009B68, symSize: 0x40 }
  - { offsetInCU: 0xA7E4, offset: 0xA7E4, size: 0x8, addend: 0x0, symName: __ZNSt3__111__tree_nextB8ue170006IPNS_16__tree_node_baseIPvEEEET_S5_, symObjAddr: 0x6234, symBinAddr: 0x100009BA8, symSize: 0x80 }
  - { offsetInCU: 0xA819, offset: 0xA819, size: 0x8, addend: 0x0, symName: __ZNSt3__18distanceB8ue170006IPcEENS_15iterator_traitsIT_E15difference_typeES3_S3_, symObjAddr: 0x6348, symBinAddr: 0x100009CBC, symSize: 0x2C }
  - { offsetInCU: 0xA85C, offset: 0xA85C, size: 0x8, addend: 0x0, symName: __ZNSt3__110__distanceB8ue170006IPcEENS_15iterator_traitsIT_E15difference_typeES3_S3_NS_26random_access_iterator_tagE, symObjAddr: 0x6434, symBinAddr: 0x100009DA8, symSize: 0x20 }
  - { offsetInCU: 0xA8A9, offset: 0xA8A9, size: 0x8, addend: 0x0, symName: __ZNSt3__122__make_exception_guardB8ue170006INS_6vectorIcNS_9allocatorIcEEE16__destroy_vectorEEENS_28__exception_guard_exceptionsIT_EES7_, symObjAddr: 0x6454, symBinAddr: 0x100009DC8, symSize: 0x40 }
  - { offsetInCU: 0xA8DE, offset: 0xA8DE, size: 0x8, addend: 0x0, symName: __ZNSt3__119__allocate_at_leastB8ue170006INS_9allocatorIcEEEENS_19__allocation_resultINS_16allocator_traitsIT_E7pointerEEERS5_m, symObjAddr: 0x6758, symBinAddr: 0x10000A0CC, symSize: 0x40 }
  - { offsetInCU: 0xA921, offset: 0xA921, size: 0x8, addend: 0x0, symName: __ZNSt3__13minB8ue170006ImEERKT_S3_S3_, symObjAddr: 0x6894, symBinAddr: 0x10000A208, symSize: 0x2C }
  - { offsetInCU: 0xAB65, offset: 0xAB65, size: 0x8, addend: 0x0, symName: __ZNSt3__13minB8ue170006ImNS_6__lessIvvEEEERKT_S5_S5_T0_, symObjAddr: 0x68FC, symBinAddr: 0x10000A270, symSize: 0x54 }
  - { offsetInCU: 0xAC04, offset: 0xAC04, size: 0x8, addend: 0x0, symName: __ZNSt3__130__uninitialized_allocator_copyB8ue170006INS_9allocatorIcEEPcS3_S3_EET2_RT_T0_T1_S4_, symObjAddr: 0x6B28, symBinAddr: 0x10000A49C, symSize: 0x80 }
  - { offsetInCU: 0xACA1, offset: 0xACA1, size: 0x8, addend: 0x0, symName: __ZNSt3__114__unwrap_rangeB8ue170006IPcS1_EENS_4pairIT0_S3_EET_S5_, symObjAddr: 0x6C18, symBinAddr: 0x10000A58C, symSize: 0x60 }
  - { offsetInCU: 0xACED, offset: 0xACED, size: 0x8, addend: 0x0, symName: __ZNSt3__135__uninitialized_allocator_copy_implB8ue170006INS_9allocatorIcEEPcS3_S3_EET2_RT_T0_T1_S4_, symObjAddr: 0x6C78, symBinAddr: 0x10000A5EC, symSize: 0xFC }
  - { offsetInCU: 0xAD8B, offset: 0xAD8B, size: 0x8, addend: 0x0, symName: __ZNSt3__19make_pairB8ue170006IPcS1_EENS_4pairINS_18__unwrap_ref_decayIT_E4typeENS3_IT0_E4typeEEEOS4_OS7_, symObjAddr: 0x6D74, symBinAddr: 0x10000A6E8, symSize: 0x38 }
  - { offsetInCU: 0xAE87, offset: 0xAE87, size: 0x8, addend: 0x0, symName: __ZNSt3__122__make_exception_guardB8ue170006INS_29_AllocatorDestroyRangeReverseINS_9allocatorIcEEPcEEEENS_28__exception_guard_exceptionsIT_EES7_, symObjAddr: 0x6E1C, symBinAddr: 0x10000A790, symSize: 0x4C }
  - { offsetInCU: 0xAEBD, offset: 0xAEBD, size: 0x8, addend: 0x0, symName: __ZNSt3__119__allocator_destroyB8ue170006INS_9allocatorIcEENS_16reverse_iteratorIPcEES5_EEvRT_T0_T1_, symObjAddr: 0x709C, symBinAddr: 0x10000AA10, symSize: 0x70 }
  - { offsetInCU: 0xAF20, offset: 0xAF20, size: 0x8, addend: 0x0, symName: __ZNSt3__1neB8ue170006IPcS1_EEbRKNS_16reverse_iteratorIT_EERKNS2_IT0_EE, symObjAddr: 0x7140, symBinAddr: 0x10000AAB4, symSize: 0x48 }
  - { offsetInCU: 0xAF6C, offset: 0xAF6C, size: 0x8, addend: 0x0, symName: __ZNSt3__112__to_addressB8ue170006INS_16reverse_iteratorIPcEEvEEu7__decayIDTclsr19__to_address_helperIT_EE6__callclsr3stdE7declvalIRKS4_EEEEES6_, symObjAddr: 0x71B4, symBinAddr: 0x10000AB28, symSize: 0x24 }
  - { offsetInCU: 0xB1E4, offset: 0xB1E4, size: 0x8, addend: 0x0, symName: __ZSt28__throw_bad_array_new_lengthB8ue170006v, symObjAddr: 0x1D38, symBinAddr: 0x1000056AC, symSize: 0x34 }
  - { offsetInCU: 0xDE58, offset: 0xDE58, size: 0x8, addend: 0x0, symName: __Z5crc32PKvm, symObjAddr: 0x0, symBinAddr: 0x100003974, symSize: 0x8C }
  - { offsetInCU: 0xDEAF, offset: 0xDEAF, size: 0x8, addend: 0x0, symName: __Z9logOutputRNSt3__114basic_ofstreamIcNS_11char_traitsIcEEEERK12PacketHeader, symObjAddr: 0x8C, symBinAddr: 0x100003A00, symSize: 0x80 }
  - { offsetInCU: 0xDEE6, offset: 0xDEE6, size: 0x8, addend: 0x0, symName: __ZNSt3__113basic_ostreamIcNS_11char_traitsIcEEElsB8ue170006EPFRS3_S4_E, symObjAddr: 0x154, symBinAddr: 0x100003AC8, symSize: 0x2C }
  - { offsetInCU: 0xDF1A, offset: 0xDF1A, size: 0x8, addend: 0x0, symName: __Z10headerNtohR12PacketHeader, symObjAddr: 0x1D8, symBinAddr: 0x100003B4C, symSize: 0xAC }
  - { offsetInCU: 0xDF43, offset: 0xDF43, size: 0x8, addend: 0x0, symName: __ZL12_OSSwapInt32j, symObjAddr: 0x284, symBinAddr: 0x100003BF8, symSize: 0x20 }
  - { offsetInCU: 0xDF70, offset: 0xDF70, size: 0x8, addend: 0x0, symName: __Z10headerHtonR12PacketHeader, symObjAddr: 0x2A4, symBinAddr: 0x100003C18, symSize: 0xAC }
  - { offsetInCU: 0xDF99, offset: 0xDF99, size: 0x8, addend: 0x0, symName: __Z11receiveFileiiR11sockaddr_inRNSt3__114basic_ofstreamIcNS1_11char_traitsIcEEEER11InputParams, symObjAddr: 0x350, symBinAddr: 0x100003CC4, symSize: 0x6C8 }
  - { offsetInCU: 0xE1A1, offset: 0xE1A1, size: 0x8, addend: 0x0, symName: __ZNSt3__114basic_ofstreamIcNS_11char_traitsIcEEEC1ERKNS_12basic_stringIcS2_NS_9allocatorIcEEEEj, symObjAddr: 0xC74, symBinAddr: 0x1000045E8, symSize: 0x17C }
  - { offsetInCU: 0xE1EB, offset: 0xE1EB, size: 0x8, addend: 0x0, symName: __ZNKSt3__19basic_iosIcNS_11char_traitsIcEEEntB8ue170006Ev, symObjAddr: 0xDF0, symBinAddr: 0x100004764, symSize: 0x28 }
  - { offsetInCU: 0xE211, offset: 0xE211, size: 0x8, addend: 0x0, symName: __ZNSt3__13mapIjNS_6vectorIcNS_9allocatorIcEEEENS_4lessIjEENS2_INS_4pairIKjS4_EEEEEC1B8ue170006Ev, symObjAddr: 0xE64, symBinAddr: 0x1000047D8, symSize: 0x2C }
  - { offsetInCU: 0xE23B, offset: 0xE23B, size: 0x8, addend: 0x0, symName: __ZNKSt3__13mapIjNS_6vectorIcNS_9allocatorIcEEEENS_4lessIjEENS2_INS_4pairIKjS4_EEEEE5countB8ue170006ERS8_, symObjAddr: 0xE90, symBinAddr: 0x100004804, symSize: 0x2C }
  - { offsetInCU: 0xE270, offset: 0xE270, size: 0x8, addend: 0x0, symName: __ZNSt3__13mapIjNS_6vectorIcNS_9allocatorIcEEEENS_4lessIjEENS2_INS_4pairIKjS4_EEEEEixERS8_, symObjAddr: 0xEBC, symBinAddr: 0x100004830, symSize: 0xC8 }
  - { offsetInCU: 0xE2E9, offset: 0xE2E9, size: 0x8, addend: 0x0, symName: __ZNSt3__16vectorIcNS_9allocatorIcEEE4dataB8ue170006Ev, symObjAddr: 0xF84, symBinAddr: 0x1000048F8, symSize: 0x28 }
  - { offsetInCU: 0xE30F, offset: 0xE30F, size: 0x8, addend: 0x0, symName: __ZNKSt3__16vectorIcNS_9allocatorIcEEE4sizeB8ue170006Ev, symObjAddr: 0xFAC, symBinAddr: 0x100004920, symSize: 0x20 }
  - { offsetInCU: 0xE335, offset: 0xE335, size: 0x8, addend: 0x0, symName: __ZNSt3__13mapIjNS_6vectorIcNS_9allocatorIcEEEENS_4lessIjEENS2_INS_4pairIKjS4_EEEEE5eraseB8ue170006ERS8_, symObjAddr: 0xFCC, symBinAddr: 0x100004940, symSize: 0x2C }
  - { offsetInCU: 0xE36A, offset: 0xE36A, size: 0x8, addend: 0x0, symName: __ZNSt3__16vectorIcNS_9allocatorIcEEEC1IPcLi0EEET_S6_, symObjAddr: 0xFF8, symBinAddr: 0x10000496C, symSize: 0x3C }
  - { offsetInCU: 0xE3C3, offset: 0xE3C3, size: 0x8, addend: 0x0, symName: __ZNSt3__16vectorIcNS_9allocatorIcEEEaSB8ue170006EOS3_, symObjAddr: 0x1034, symBinAddr: 0x1000049A8, symSize: 0x34 }
  - { offsetInCU: 0xE3FA, offset: 0xE3FA, size: 0x8, addend: 0x0, symName: __ZNSt3__16vectorIcNS_9allocatorIcEEED1B8ue170006Ev, symObjAddr: 0x1068, symBinAddr: 0x1000049DC, symSize: 0x2C }
  - { offsetInCU: 0xE424, offset: 0xE424, size: 0x8, addend: 0x0, symName: __ZNSt3__114basic_ofstreamIcNS_11char_traitsIcEEE5closeEv, symObjAddr: 0x1094, symBinAddr: 0x100004A08, symSize: 0x58 }
  - { offsetInCU: 0xE44C, offset: 0xE44C, size: 0x8, addend: 0x0, symName: __ZNSt3__13mapIjNS_6vectorIcNS_9allocatorIcEEEENS_4lessIjEENS2_INS_4pairIKjS4_EEEEED1B8ue170006Ev, symObjAddr: 0x10EC, symBinAddr: 0x100004A60, symSize: 0x2C }
  - { offsetInCU: 0xE47B, offset: 0xE47B, size: 0x8, addend: 0x0, symName: __ZNSt3__114basic_ofstreamIcNS_11char_traitsIcEEED1Ev, symObjAddr: 0x1118, symBinAddr: 0x100004A8C, symSize: 0x70 }
  - { offsetInCU: 0xE4A8, offset: 0xE4A8, size: 0x8, addend: 0x0, symName: __Z7connectiR11InputParams, symObjAddr: 0x1188, symBinAddr: 0x100004AFC, symSize: 0x260 }
  - { offsetInCU: 0xE571, offset: 0xE571, size: 0x8, addend: 0x0, symName: _main, symObjAddr: 0x13E8, symBinAddr: 0x100004D5C, symSize: 0x284 }
  - { offsetInCU: 0xE63F, offset: 0xE63F, size: 0x8, addend: 0x0, symName: __ZN11InputParamsC1Ev, symObjAddr: 0x166C, symBinAddr: 0x100004FE0, symSize: 0x2C }
  - { offsetInCU: 0xE66B, offset: 0xE66B, size: 0x8, addend: 0x0, symName: __ZNSt3__112basic_stringIcNS_11char_traitsIcEENS_9allocatorIcEEEaSB8ue170006EPKc, symObjAddr: 0x1698, symBinAddr: 0x10000500C, symSize: 0x2C }
  - { offsetInCU: 0xE6A0, offset: 0xE6A0, size: 0x8, addend: 0x0, symName: __ZL12_OSSwapInt16t, symObjAddr: 0x16C4, symBinAddr: 0x100005038, symSize: 0x24 }
  - { offsetInCU: 0xE6CD, offset: 0xE6CD, size: 0x8, addend: 0x0, symName: __ZN11InputParamsD1Ev, symObjAddr: 0x16E8, symBinAddr: 0x10000505C, symSize: 0x2C }
  - { offsetInCU: 0xE6F9, offset: 0xE6F9, size: 0x8, addend: 0x0, symName: __ZNSt3__114basic_ofstreamIcNS_11char_traitsIcEEED2Ev, symObjAddr: 0x1714, symBinAddr: 0x100005088, symSize: 0x9C }
  - { offsetInCU: 0xE733, offset: 0xE733, size: 0x8, addend: 0x0, symName: __ZTv0_n24_NSt3__114basic_ofstreamIcNS_11char_traitsIcEEED1Ev, symObjAddr: 0x17B0, symBinAddr: 0x100005124, symSize: 0x28 }
  - { offsetInCU: 0xE74A, offset: 0xE74A, size: 0x8, addend: 0x0, symName: __ZN11InputParamsC2Ev, symObjAddr: 0x17D8, symBinAddr: 0x10000514C, symSize: 0x68 }
  - { offsetInCU: 0xE776, offset: 0xE776, size: 0x8, addend: 0x0, symName: __ZNSt3__112basic_stringIcNS_11char_traitsIcEENS_9allocatorIcEEEC1B8ue170006Ev, symObjAddr: 0x1840, symBinAddr: 0x1000051B4, symSize: 0x2C }
  - { offsetInCU: 0xE7A0, offset: 0xE7A0, size: 0x8, addend: 0x0, symName: __ZNSt3__112basic_stringIcNS_11char_traitsIcEENS_9allocatorIcEEEC2B8ue170006Ev, symObjAddr: 0x186C, symBinAddr: 0x1000051E0, symSize: 0x3C }
  - { offsetInCU: 0xE7CF, offset: 0xE7CF, size: 0x8, addend: 0x0, symName: __ZNSt3__117__compressed_pairINS_12basic_stringIcNS_11char_traitsIcEENS_9allocatorIcEEE5__repES5_EC1B8ue170006INS_18__default_init_tagESA_EEOT_OT0_, symObjAddr: 0x18A8, symBinAddr: 0x10000521C, symSize: 0x3C }
  - { offsetInCU: 0xE827, offset: 0xE827, size: 0x8, addend: 0x0, symName: __ZNSt3__112basic_stringIcNS_11char_traitsIcEENS_9allocatorIcEEE14__default_initB8ue170006Ev, symObjAddr: 0x18E4, symBinAddr: 0x100005258, symSize: 0xB0 }
  - { offsetInCU: 0xE879, offset: 0xE879, size: 0x8, addend: 0x0, symName: __ZNSt3__117__compressed_pairINS_12basic_stringIcNS_11char_traitsIcEENS_9allocatorIcEEE5__repES5_EC2B8ue170006INS_18__default_init_tagESA_EEOT_OT0_, symObjAddr: 0x1994, symBinAddr: 0x100005308, symSize: 0x3C }
  - { offsetInCU: 0xE8D1, offset: 0xE8D1, size: 0x8, addend: 0x0, symName: __ZNSt3__122__compressed_pair_elemINS_12basic_stringIcNS_11char_traitsIcEENS_9allocatorIcEEE5__repELi0ELb0EEC2B8ue170006ENS_18__default_init_tagE, symObjAddr: 0x19D0, symBinAddr: 0x100005344, symSize: 0x14 }
  - { offsetInCU: 0xE905, offset: 0xE905, size: 0x8, addend: 0x0, symName: __ZNSt3__122__compressed_pair_elemINS_9allocatorIcEELi1ELb1EEC2B8ue170006ENS_18__default_init_tagE, symObjAddr: 0x19E4, symBinAddr: 0x100005358, symSize: 0x2C }
  - { offsetInCU: 0xE939, offset: 0xE939, size: 0x8, addend: 0x0, symName: __ZNSt3__19allocatorIcEC2B8ue170006Ev, symObjAddr: 0x1A10, symBinAddr: 0x100005384, symSize: 0x2C }
  - { offsetInCU: 0xE963, offset: 0xE963, size: 0x8, addend: 0x0, symName: __ZNSt3__116__non_trivial_ifILb1ENS_9allocatorIcEEEC2B8ue170006Ev, symObjAddr: 0x1A3C, symBinAddr: 0x1000053B0, symSize: 0x14 }
  - { offsetInCU: 0xE98D, offset: 0xE98D, size: 0x8, addend: 0x0, symName: __ZNSt3__117__compressed_pairINS_12basic_stringIcNS_11char_traitsIcEENS_9allocatorIcEEE5__repES5_E5firstB8ue170006Ev, symObjAddr: 0x1A50, symBinAddr: 0x1000053C4, symSize: 0x24 }
  - { offsetInCU: 0xE9B3, offset: 0xE9B3, size: 0x8, addend: 0x0, symName: __ZNSt3__112basic_stringIcNS_11char_traitsIcEENS_9allocatorIcEEE11__recommendB8ue170006Em, symObjAddr: 0x1A80, symBinAddr: 0x1000053F4, symSize: 0x9C }
  - { offsetInCU: 0xE9E6, offset: 0xE9E6, size: 0x8, addend: 0x0, symName: __ZNSt3__116allocator_traitsINS_9allocatorIcEEE8allocateB8ue170006ERS2_m, symObjAddr: 0x1B1C, symBinAddr: 0x100005490, symSize: 0x2C }
  - { offsetInCU: 0xEA19, offset: 0xEA19, size: 0x8, addend: 0x0, symName: __ZNSt3__112basic_stringIcNS_11char_traitsIcEENS_9allocatorIcEEE7__allocB8ue170006Ev, symObjAddr: 0x1B48, symBinAddr: 0x1000054BC, symSize: 0x24 }
  - { offsetInCU: 0xEA3F, offset: 0xEA3F, size: 0x8, addend: 0x0, symName: __ZNSt3__112basic_stringIcNS_11char_traitsIcEENS_9allocatorIcEEE16__begin_lifetimeB8ue170006EPcm, symObjAddr: 0x1B6C, symBinAddr: 0x1000054E0, symSize: 0x14 }
  - { offsetInCU: 0xEA72, offset: 0xEA72, size: 0x8, addend: 0x0, symName: __ZNSt3__112basic_stringIcNS_11char_traitsIcEENS_9allocatorIcEEE18__set_long_pointerB8ue170006EPc, symObjAddr: 0x1B80, symBinAddr: 0x1000054F4, symSize: 0x38 }
  - { offsetInCU: 0xEAA7, offset: 0xEAA7, size: 0x8, addend: 0x0, symName: __ZNSt3__112basic_stringIcNS_11char_traitsIcEENS_9allocatorIcEEE14__set_long_capB8ue170006Em, symObjAddr: 0x1BB8, symBinAddr: 0x10000552C, symSize: 0x70 }
  - { offsetInCU: 0xEADC, offset: 0xEADC, size: 0x8, addend: 0x0, symName: __ZNSt3__112basic_stringIcNS_11char_traitsIcEENS_9allocatorIcEEE15__set_long_sizeB8ue170006Em, symObjAddr: 0x1C28, symBinAddr: 0x10000559C, symSize: 0x38 }
  - { offsetInCU: 0xEB11, offset: 0xEB11, size: 0x8, addend: 0x0, symName: __ZNSt3__122__compressed_pair_elemINS_12basic_stringIcNS_11char_traitsIcEENS_9allocatorIcEEE5__repELi0ELb0EE5__getB8ue170006Ev, symObjAddr: 0x1C60, symBinAddr: 0x1000055D4, symSize: 0x14 }
  - { offsetInCU: 0xEB37, offset: 0xEB37, size: 0x8, addend: 0x0, symName: __ZNSt3__112basic_stringIcNS_11char_traitsIcEENS_9allocatorIcEEE10__align_itB8ue170006ILm16EEEmm, symObjAddr: 0x1C74, symBinAddr: 0x1000055E8, symSize: 0x1C }
  - { offsetInCU: 0xEB65, offset: 0xEB65, size: 0x8, addend: 0x0, symName: __ZNSt3__19allocatorIcE8allocateB8ue170006Em, symObjAddr: 0x1C90, symBinAddr: 0x100005604, symSize: 0x84 }
  - { offsetInCU: 0xEBA3, offset: 0xEBA3, size: 0x8, addend: 0x0, symName: __ZNSt3__116allocator_traitsINS_9allocatorIcEEE8max_sizeB8ue170006IS2_vEEmRKS2_, symObjAddr: 0x1D14, symBinAddr: 0x100005688, symSize: 0x24 }
  - { offsetInCU: 0xEBD1, offset: 0xEBD1, size: 0x8, addend: 0x0, symName: __ZNKSt3__19allocatorIcE8max_sizeB8ue170006Ev, symObjAddr: 0x1D94, symBinAddr: 0x100005708, symSize: 0x14 }
  - { offsetInCU: 0xEBF7, offset: 0xEBF7, size: 0x8, addend: 0x0, symName: __ZNSt3__117__compressed_pairINS_12basic_stringIcNS_11char_traitsIcEENS_9allocatorIcEEE5__repES5_E6secondB8ue170006Ev, symObjAddr: 0x1DCC, symBinAddr: 0x100005740, symSize: 0x24 }
  - { offsetInCU: 0xEC1D, offset: 0xEC1D, size: 0x8, addend: 0x0, symName: __ZNSt3__122__compressed_pair_elemINS_9allocatorIcEELi1ELb1EE5__getB8ue170006Ev, symObjAddr: 0x1DF0, symBinAddr: 0x100005764, symSize: 0x14 }
  - { offsetInCU: 0xEC43, offset: 0xEC43, size: 0x8, addend: 0x0, symName: __ZN11InputParamsD2Ev, symObjAddr: 0x1E04, symBinAddr: 0x100005778, symSize: 0x68 }
  - { offsetInCU: 0xEC6F, offset: 0xEC6F, size: 0x8, addend: 0x0, symName: __ZNSt3__111char_traitsIcE6lengthB8ue170006EPKc, symObjAddr: 0x2060, symBinAddr: 0x1000059D4, symSize: 0x48 }
  - { offsetInCU: 0xECB0, offset: 0xECB0, size: 0x8, addend: 0x0, symName: __ZNKSt3__113basic_ostreamIcNS_11char_traitsIcEEE6sentrycvbB8ue170006Ev, symObjAddr: 0x20A8, symBinAddr: 0x100005A1C, symSize: 0x1C }
  - { offsetInCU: 0xECD6, offset: 0xECD6, size: 0x8, addend: 0x0, symName: __ZNSt3__119ostreambuf_iteratorIcNS_11char_traitsIcEEEC1B8ue170006ERNS_13basic_ostreamIcS2_EE, symObjAddr: 0x230C, symBinAddr: 0x100005C80, symSize: 0x34 }
  - { offsetInCU: 0xED0E, offset: 0xED0E, size: 0x8, addend: 0x0, symName: __ZNKSt3__18ios_base5flagsB8ue170006Ev, symObjAddr: 0x2340, symBinAddr: 0x100005CB4, symSize: 0x18 }
  - { offsetInCU: 0xED36, offset: 0xED36, size: 0x8, addend: 0x0, symName: __ZNKSt3__19basic_iosIcNS_11char_traitsIcEEE4fillB8ue170006Ev, symObjAddr: 0x2358, symBinAddr: 0x100005CCC, symSize: 0x64 }
  - { offsetInCU: 0xED5E, offset: 0xED5E, size: 0x8, addend: 0x0, symName: __ZNKSt3__119ostreambuf_iteratorIcNS_11char_traitsIcEEE6failedB8ue170006Ev, symObjAddr: 0x23BC, symBinAddr: 0x100005D30, symSize: 0x24 }
  - { offsetInCU: 0xED84, offset: 0xED84, size: 0x8, addend: 0x0, symName: __ZNSt3__19basic_iosIcNS_11char_traitsIcEEE8setstateB8ue170006Ej, symObjAddr: 0x23E0, symBinAddr: 0x100005D54, symSize: 0x2C }
  - { offsetInCU: 0xEDB9, offset: 0xEDB9, size: 0x8, addend: 0x0, symName: __ZNKSt3__18ios_base5widthB8ue170006Ev, symObjAddr: 0x240C, symBinAddr: 0x100005D80, symSize: 0x18 }
  - { offsetInCU: 0xEDE1, offset: 0xEDE1, size: 0x8, addend: 0x0, symName: __ZNSt3__115basic_streambufIcNS_11char_traitsIcEEE5sputnB8ue170006EPKcl, symObjAddr: 0x2424, symBinAddr: 0x100005D98, symSize: 0x3C }
  - { offsetInCU: 0xEE23, offset: 0xEE23, size: 0x8, addend: 0x0, symName: __ZNSt3__112basic_stringIcNS_11char_traitsIcEENS_9allocatorIcEEEC1B8ue170006Emc, symObjAddr: 0x2460, symBinAddr: 0x100005DD4, symSize: 0x3C }
  - { offsetInCU: 0xEE6B, offset: 0xEE6B, size: 0x8, addend: 0x0, symName: __ZNKSt3__112basic_stringIcNS_11char_traitsIcEENS_9allocatorIcEEE4dataB8ue170006Ev, symObjAddr: 0x249C, symBinAddr: 0x100005E10, symSize: 0x28 }
  - { offsetInCU: 0xEE91, offset: 0xEE91, size: 0x8, addend: 0x0, symName: __ZNSt3__18ios_base5widthB8ue170006El, symObjAddr: 0x24C4, symBinAddr: 0x100005E38, symSize: 0x2C }
  - { offsetInCU: 0xEED7, offset: 0xEED7, size: 0x8, addend: 0x0, symName: __ZNSt3__112basic_stringIcNS_11char_traitsIcEENS_9allocatorIcEEEC2B8ue170006Emc, symObjAddr: 0x24F0, symBinAddr: 0x100005E64, symSize: 0x4C }
  - { offsetInCU: 0xEF1F, offset: 0xEF1F, size: 0x8, addend: 0x0, symName: __ZNKSt3__112basic_stringIcNS_11char_traitsIcEENS_9allocatorIcEEE13__get_pointerB8ue170006Ev, symObjAddr: 0x2550, symBinAddr: 0x100005EC4, symSize: 0x54 }
  - { offsetInCU: 0xEF45, offset: 0xEF45, size: 0x8, addend: 0x0, symName: __ZNKSt3__112basic_stringIcNS_11char_traitsIcEENS_9allocatorIcEEE9__is_longB8ue170006Ev, symObjAddr: 0x25A4, symBinAddr: 0x100005F18, symSize: 0x74 }
  - { offsetInCU: 0xEF6B, offset: 0xEF6B, size: 0x8, addend: 0x0, symName: __ZNKSt3__112basic_stringIcNS_11char_traitsIcEENS_9allocatorIcEEE18__get_long_pointerB8ue170006Ev, symObjAddr: 0x2618, symBinAddr: 0x100005F8C, symSize: 0x28 }
  - { offsetInCU: 0xEF91, offset: 0xEF91, size: 0x8, addend: 0x0, symName: __ZNKSt3__112basic_stringIcNS_11char_traitsIcEENS_9allocatorIcEEE19__get_short_pointerB8ue170006Ev, symObjAddr: 0x2640, symBinAddr: 0x100005FB4, symSize: 0x28 }
  - { offsetInCU: 0xEFB7, offset: 0xEFB7, size: 0x8, addend: 0x0, symName: __ZNKSt3__117__compressed_pairINS_12basic_stringIcNS_11char_traitsIcEENS_9allocatorIcEEE5__repES5_E5firstB8ue170006Ev, symObjAddr: 0x2668, symBinAddr: 0x100005FDC, symSize: 0x24 }
  - { offsetInCU: 0xEFDD, offset: 0xEFDD, size: 0x8, addend: 0x0, symName: __ZNKSt3__122__compressed_pair_elemINS_12basic_stringIcNS_11char_traitsIcEENS_9allocatorIcEEE5__repELi0ELb0EE5__getB8ue170006Ev, symObjAddr: 0x268C, symBinAddr: 0x100006000, symSize: 0x14 }
  - { offsetInCU: 0xF003, offset: 0xF003, size: 0x8, addend: 0x0, symName: __ZNSt3__114pointer_traitsIPKcE10pointer_toB8ue170006ERS1_, symObjAddr: 0x26A0, symBinAddr: 0x100006014, symSize: 0x14 }
  - { offsetInCU: 0xF026, offset: 0xF026, size: 0x8, addend: 0x0, symName: __ZNSt3__119ostreambuf_iteratorIcNS_11char_traitsIcEEEC2B8ue170006ERNS_13basic_ostreamIcS2_EE, symObjAddr: 0x26B4, symBinAddr: 0x100006028, symSize: 0x68 }
  - { offsetInCU: 0xF05E, offset: 0xF05E, size: 0x8, addend: 0x0, symName: __ZNKSt3__19basic_iosIcNS_11char_traitsIcEEE5rdbufB8ue170006Ev, symObjAddr: 0x271C, symBinAddr: 0x100006090, symSize: 0x24 }
  - { offsetInCU: 0xF086, offset: 0xF086, size: 0x8, addend: 0x0, symName: __ZNKSt3__18ios_base5rdbufB8ue170006Ev, symObjAddr: 0x2740, symBinAddr: 0x1000060B4, symSize: 0x18 }
  - { offsetInCU: 0xF0AC, offset: 0xF0AC, size: 0x8, addend: 0x0, symName: __ZNSt3__111char_traitsIcE11eq_int_typeB8ue170006Eii, symObjAddr: 0x2758, symBinAddr: 0x1000060CC, symSize: 0x28 }
  - { offsetInCU: 0xF0DF, offset: 0xF0DF, size: 0x8, addend: 0x0, symName: __ZNSt3__111char_traitsIcE3eofB8ue170006Ev, symObjAddr: 0x2780, symBinAddr: 0x1000060F4, symSize: 0x8 }
  - { offsetInCU: 0xF0F3, offset: 0xF0F3, size: 0x8, addend: 0x0, symName: __ZNKSt3__19basic_iosIcNS_11char_traitsIcEEE5widenB8ue170006Ec, symObjAddr: 0x2788, symBinAddr: 0x1000060FC, symSize: 0x8C }
  - { offsetInCU: 0xF15C, offset: 0xF15C, size: 0x8, addend: 0x0, symName: __ZNKSt3__15ctypeIcE5widenB8ue170006Ec, symObjAddr: 0x2840, symBinAddr: 0x1000061B4, symSize: 0x38 }
  - { offsetInCU: 0xF191, offset: 0xF191, size: 0x8, addend: 0x0, symName: __ZNSt3__18ios_base8setstateB8ue170006Ej, symObjAddr: 0x2878, symBinAddr: 0x1000061EC, symSize: 0x34 }
  - { offsetInCU: 0xF1C8, offset: 0xF1C8, size: 0x8, addend: 0x0, symName: __ZNKSt3__112basic_stringIcNS_11char_traitsIcEENS_9allocatorIcEEE4sizeB8ue170006Ev, symObjAddr: 0x28D0, symBinAddr: 0x100006244, symSize: 0x54 }
  - { offsetInCU: 0xF1EE, offset: 0xF1EE, size: 0x8, addend: 0x0, symName: __ZNSt3__116allocator_traitsINS_9allocatorIcEEE37select_on_container_copy_constructionB8ue170006IS2_vvEES2_RKS2_, symObjAddr: 0x2924, symBinAddr: 0x100006298, symSize: 0x10 }
  - { offsetInCU: 0xF21D, offset: 0xF21D, size: 0x8, addend: 0x0, symName: __ZNKSt3__112basic_stringIcNS_11char_traitsIcEENS_9allocatorIcEEE13get_allocatorB8ue170006Ev, symObjAddr: 0x2934, symBinAddr: 0x1000062A8, symSize: 0x24 }
  - { offsetInCU: 0xF243, offset: 0xF243, size: 0x8, addend: 0x0, symName: __ZNSt3__112basic_stringIcNS_11char_traitsIcEENS_9allocatorIcEEEC1B8ue170006ENS_24__uninitialized_size_tagEmRKS4_, symObjAddr: 0x2958, symBinAddr: 0x1000062CC, symSize: 0x3C }
  - { offsetInCU: 0xF297, offset: 0xF297, size: 0x8, addend: 0x0, symName: __ZNSt3__112basic_stringIcNS_11char_traitsIcEENS_9allocatorIcEEE13__get_pointerB8ue170006Ev, symObjAddr: 0x29A8, symBinAddr: 0x10000631C, symSize: 0x54 }
  - { offsetInCU: 0xF2BD, offset: 0xF2BD, size: 0x8, addend: 0x0, symName: __ZNSt3__111char_traitsIcE4copyB8ue170006EPcPKcm, symObjAddr: 0x29FC, symBinAddr: 0x100006370, symSize: 0x64 }
  - { offsetInCU: 0xF2FC, offset: 0xF2FC, size: 0x8, addend: 0x0, symName: __ZNSt3__111char_traitsIcE6assignB8ue170006EPcmc, symObjAddr: 0x2A60, symBinAddr: 0x1000063D4, symSize: 0x58 }
  - { offsetInCU: 0xF33B, offset: 0xF33B, size: 0x8, addend: 0x0, symName: __ZNKSt3__112basic_stringIcNS_11char_traitsIcEENS_9allocatorIcEEE15__get_long_sizeB8ue170006Ev, symObjAddr: 0x2AB8, symBinAddr: 0x10000642C, symSize: 0x28 }
  - { offsetInCU: 0xF361, offset: 0xF361, size: 0x8, addend: 0x0, symName: __ZNKSt3__112basic_stringIcNS_11char_traitsIcEENS_9allocatorIcEEE16__get_short_sizeB8ue170006Ev, symObjAddr: 0x2AE0, symBinAddr: 0x100006454, symSize: 0x34 }
  - { offsetInCU: 0xF387, offset: 0xF387, size: 0x8, addend: 0x0, symName: __ZNKSt3__112basic_stringIcNS_11char_traitsIcEENS_9allocatorIcEEE7__allocB8ue170006Ev, symObjAddr: 0x2B14, symBinAddr: 0x100006488, symSize: 0x24 }
  - { offsetInCU: 0xF3AD, offset: 0xF3AD, size: 0x8, addend: 0x0, symName: __ZNKSt3__117__compressed_pairINS_12basic_stringIcNS_11char_traitsIcEENS_9allocatorIcEEE5__repES5_E6secondB8ue170006Ev, symObjAddr: 0x2B38, symBinAddr: 0x1000064AC, symSize: 0x24 }
  - { offsetInCU: 0xF3D3, offset: 0xF3D3, size: 0x8, addend: 0x0, symName: __ZNKSt3__122__compressed_pair_elemINS_9allocatorIcEELi1ELb1EE5__getB8ue170006Ev, symObjAddr: 0x2B5C, symBinAddr: 0x1000064D0, symSize: 0x14 }
  - { offsetInCU: 0xF3F9, offset: 0xF3F9, size: 0x8, addend: 0x0, symName: __ZNSt3__112basic_stringIcNS_11char_traitsIcEENS_9allocatorIcEEEC2B8ue170006ENS_24__uninitialized_size_tagEmRKS4_, symObjAddr: 0x2B70, symBinAddr: 0x1000064E4, symSize: 0x110 }
  - { offsetInCU: 0xF479, offset: 0xF479, size: 0x8, addend: 0x0, symName: __ZNSt3__117__compressed_pairINS_12basic_stringIcNS_11char_traitsIcEENS_9allocatorIcEEE5__repES5_EC1B8ue170006INS_18__default_init_tagERKS5_EEOT_OT0_, symObjAddr: 0x2C80, symBinAddr: 0x1000065F4, symSize: 0x3C }
  - { offsetInCU: 0xF4D1, offset: 0xF4D1, size: 0x8, addend: 0x0, symName: __ZNKSt3__112basic_stringIcNS_11char_traitsIcEENS_9allocatorIcEEE8max_sizeB8ue170006Ev, symObjAddr: 0x2CBC, symBinAddr: 0x100006630, symSize: 0xAC }
  - { offsetInCU: 0xF523, offset: 0xF523, size: 0x8, addend: 0x0, symName: __ZNKSt3__112basic_stringIcNS_11char_traitsIcEENS_9allocatorIcEEE20__throw_length_errorB8ue170006Ev, symObjAddr: 0x2D68, symBinAddr: 0x1000066DC, symSize: 0x1C }
  - { offsetInCU: 0xF549, offset: 0xF549, size: 0x8, addend: 0x0, symName: __ZNSt3__112basic_stringIcNS_11char_traitsIcEENS_9allocatorIcEEE13__fits_in_ssoB8ue170006Em, symObjAddr: 0x2D84, symBinAddr: 0x1000066F8, symSize: 0x4C }
  - { offsetInCU: 0xF56D, offset: 0xF56D, size: 0x8, addend: 0x0, symName: __ZNSt3__112basic_stringIcNS_11char_traitsIcEENS_9allocatorIcEEE16__set_short_sizeB8ue170006Em, symObjAddr: 0x2DD0, symBinAddr: 0x100006744, symSize: 0x78 }
  - { offsetInCU: 0xF5A2, offset: 0xF5A2, size: 0x8, addend: 0x0, symName: __ZNSt3__117__compressed_pairINS_12basic_stringIcNS_11char_traitsIcEENS_9allocatorIcEEE5__repES5_EC2B8ue170006INS_18__default_init_tagERKS5_EEOT_OT0_, symObjAddr: 0x2E48, symBinAddr: 0x1000067BC, symSize: 0x40 }
  - { offsetInCU: 0xF5FA, offset: 0xF5FA, size: 0x8, addend: 0x0, symName: __ZNSt3__122__compressed_pair_elemINS_9allocatorIcEELi1ELb1EEC2B8ue170006IRKS2_vEEOT_, symObjAddr: 0x2E88, symBinAddr: 0x1000067FC, symSize: 0x18 }
  - { offsetInCU: 0xF63C, offset: 0xF63C, size: 0x8, addend: 0x0, symName: __ZNSt3__114numeric_limitsImE3maxB8ue170006Ev, symObjAddr: 0x2EA0, symBinAddr: 0x100006814, symSize: 0x14 }
  - { offsetInCU: 0xF650, offset: 0xF650, size: 0x8, addend: 0x0, symName: __ZNSt3__123__libcpp_numeric_limitsImLb1EE3maxB8ue170006Ev, symObjAddr: 0x2EB4, symBinAddr: 0x100006828, symSize: 0x8 }
  - { offsetInCU: 0xF664, offset: 0xF664, size: 0x8, addend: 0x0, symName: __ZNSt12length_errorC1B8ue170006EPKc, symObjAddr: 0x2F20, symBinAddr: 0x100006894, symSize: 0x34 }
  - { offsetInCU: 0xF69C, offset: 0xF69C, size: 0x8, addend: 0x0, symName: __ZNSt12length_errorC2B8ue170006EPKc, symObjAddr: 0x2F54, symBinAddr: 0x1000068C8, symSize: 0x4C }
  - { offsetInCU: 0xF6D4, offset: 0xF6D4, size: 0x8, addend: 0x0, symName: __ZNSt3__112basic_stringIcNS_11char_traitsIcEENS_9allocatorIcEEE18__get_long_pointerB8ue170006Ev, symObjAddr: 0x2FA0, symBinAddr: 0x100006914, symSize: 0x28 }
  - { offsetInCU: 0xF6FA, offset: 0xF6FA, size: 0x8, addend: 0x0, symName: __ZNSt3__112basic_stringIcNS_11char_traitsIcEENS_9allocatorIcEEE19__get_short_pointerB8ue170006Ev, symObjAddr: 0x2FC8, symBinAddr: 0x10000693C, symSize: 0x28 }
  - { offsetInCU: 0xF720, offset: 0xF720, size: 0x8, addend: 0x0, symName: __ZNSt3__114pointer_traitsIPcE10pointer_toB8ue170006ERc, symObjAddr: 0x2FF0, symBinAddr: 0x100006964, symSize: 0x14 }
  - { offsetInCU: 0xF770, offset: 0xF770, size: 0x8, addend: 0x0, symName: __ZNKSt3__114__copy_trivialclB8ue170006IKccLi0EEENS_4pairIPT_PT0_EES5_S5_S7_, symObjAddr: 0x3224, symBinAddr: 0x100006B98, symSize: 0x48 }
  - { offsetInCU: 0xF7F1, offset: 0xF7F1, size: 0x8, addend: 0x0, symName: __ZNSt3__14pairIPKcS2_EC1B8ue170006ERKS2_S5_, symObjAddr: 0x33A0, symBinAddr: 0x100006D14, symSize: 0x3C }
  - { offsetInCU: 0xF837, offset: 0xF837, size: 0x8, addend: 0x0, symName: __ZNSt3__14pairIPKcS2_EC2B8ue170006ERKS2_S5_, symObjAddr: 0x33DC, symBinAddr: 0x100006D50, symSize: 0x34 }
  - { offsetInCU: 0xF87D, offset: 0xF87D, size: 0x8, addend: 0x0, symName: __ZNSt3__118__unwrap_iter_implIPKcLb1EE8__unwrapB8ue170006ES2_, symObjAddr: 0x3410, symBinAddr: 0x100006D84, symSize: 0x24 }
  - { offsetInCU: 0xF8A0, offset: 0xF8A0, size: 0x8, addend: 0x0, symName: __ZNSt3__14pairIPKcPcEC1B8ue170006ERKS2_RKS3_, symObjAddr: 0x3584, symBinAddr: 0x100006EF8, symSize: 0x3C }
  - { offsetInCU: 0xF8E6, offset: 0xF8E6, size: 0x8, addend: 0x0, symName: __ZNSt3__14pairIPKcPcEC2B8ue170006ERKS2_RKS3_, symObjAddr: 0x35C0, symBinAddr: 0x100006F34, symSize: 0x34 }
  - { offsetInCU: 0xF92C, offset: 0xF92C, size: 0x8, addend: 0x0, symName: __ZNSt3__118__unwrap_iter_implIPcLb1EE8__unwrapB8ue170006ES1_, symObjAddr: 0x35F4, symBinAddr: 0x100006F68, symSize: 0x24 }
  - { offsetInCU: 0xF94F, offset: 0xF94F, size: 0x8, addend: 0x0, symName: __ZNSt3__118__unwrap_iter_implIPKcLb1EE8__rewrapB8ue170006ES2_S2_, symObjAddr: 0x3668, symBinAddr: 0x100006FDC, symSize: 0x48 }
  - { offsetInCU: 0xF980, offset: 0xF980, size: 0x8, addend: 0x0, symName: __ZNSt3__118__unwrap_iter_implIPcLb1EE8__rewrapB8ue170006ES1_S1_, symObjAddr: 0x36B0, symBinAddr: 0x100007024, symSize: 0x48 }
  - { offsetInCU: 0xF9B1, offset: 0xF9B1, size: 0x8, addend: 0x0, symName: __ZNSt3__19basic_iosIcNS_11char_traitsIcEEEC2B8ue170006Ev, symObjAddr: 0x37B4, symBinAddr: 0x100007128, symSize: 0x44 }
  - { offsetInCU: 0xF9DB, offset: 0xF9DB, size: 0x8, addend: 0x0, symName: __ZNSt3__113basic_ostreamIcNS_11char_traitsIcEEEC2B8ue170006EPNS_15basic_streambufIcS2_EE, symObjAddr: 0x37F8, symBinAddr: 0x10000716C, symSize: 0x60 }
  - { offsetInCU: 0xFA20, offset: 0xFA20, size: 0x8, addend: 0x0, symName: __ZNSt3__113basic_filebufIcNS_11char_traitsIcEEE4openERKNS_12basic_stringIcS2_NS_9allocatorIcEEEEj, symObjAddr: 0x3858, symBinAddr: 0x1000071CC, symSize: 0x44 }
  - { offsetInCU: 0xFA64, offset: 0xFA64, size: 0x8, addend: 0x0, symName: __ZNSt3__18ios_baseC2B8ue170006Ev, symObjAddr: 0x389C, symBinAddr: 0x100007210, symSize: 0x24 }
  - { offsetInCU: 0xFA8E, offset: 0xFA8E, size: 0x8, addend: 0x0, symName: __ZNSt3__19basic_iosIcNS_11char_traitsIcEEE4initB8ue170006EPNS_15basic_streambufIcS2_EE, symObjAddr: 0x38C0, symBinAddr: 0x100007234, symSize: 0x44 }
  - { offsetInCU: 0xFAC5, offset: 0xFAC5, size: 0x8, addend: 0x0, symName: __ZNKSt3__112basic_stringIcNS_11char_traitsIcEENS_9allocatorIcEEE5c_strB8ue170006Ev, symObjAddr: 0x3904, symBinAddr: 0x100007278, symSize: 0x24 }
  - { offsetInCU: 0xFAEB, offset: 0xFAEB, size: 0x8, addend: 0x0, symName: __ZNKSt3__19basic_iosIcNS_11char_traitsIcEEE4failB8ue170006Ev, symObjAddr: 0x3928, symBinAddr: 0x10000729C, symSize: 0x28 }
  - { offsetInCU: 0xFB11, offset: 0xFB11, size: 0x8, addend: 0x0, symName: __ZNKSt3__18ios_base4failB8ue170006Ev, symObjAddr: 0x3950, symBinAddr: 0x1000072C4, symSize: 0x28 }
  - { offsetInCU: 0xFB39, offset: 0xFB39, size: 0x8, addend: 0x0, symName: __ZNSt3__13mapIjNS_6vectorIcNS_9allocatorIcEEEENS_4lessIjEENS2_INS_4pairIKjS4_EEEEEC2B8ue170006Ev, symObjAddr: 0x3978, symBinAddr: 0x1000072EC, symSize: 0x40 }
  - { offsetInCU: 0xFB63, offset: 0xFB63, size: 0x8, addend: 0x0, symName: __ZNSt3__119__map_value_compareIjNS_12__value_typeIjNS_6vectorIcNS_9allocatorIcEEEEEENS_4lessIjEELb1EEC1B8ue170006ES8_, symObjAddr: 0x39B8, symBinAddr: 0x10000732C, symSize: 0x2C }
  - { offsetInCU: 0xFB9C, offset: 0xFB9C, size: 0x8, addend: 0x0, symName: __ZNSt3__16__treeINS_12__value_typeIjNS_6vectorIcNS_9allocatorIcEEEEEENS_19__map_value_compareIjS6_NS_4lessIjEELb1EEENS3_IS6_EEEC1ERKSA_, symObjAddr: 0x39E4, symBinAddr: 0x100007358, symSize: 0x34 }
  - { offsetInCU: 0xFBD7, offset: 0xFBD7, size: 0x8, addend: 0x0, symName: __ZNSt3__119__map_value_compareIjNS_12__value_typeIjNS_6vectorIcNS_9allocatorIcEEEEEENS_4lessIjEELb1EEC2B8ue170006ES8_, symObjAddr: 0x3A18, symBinAddr: 0x10000738C, symSize: 0x14 }
  - { offsetInCU: 0xFC10, offset: 0xFC10, size: 0x8, addend: 0x0, symName: __ZNSt3__16__treeINS_12__value_typeIjNS_6vectorIcNS_9allocatorIcEEEEEENS_19__map_value_compareIjS6_NS_4lessIjEELb1EEENS3_IS6_EEEC2ERKSA_, symObjAddr: 0x3A2C, symBinAddr: 0x1000073A0, symSize: 0x70 }
  - { offsetInCU: 0xFC4B, offset: 0xFC4B, size: 0x8, addend: 0x0, symName: __ZNSt3__117__compressed_pairINS_15__tree_end_nodeIPNS_16__tree_node_baseIPvEEEENS_9allocatorINS_11__tree_nodeINS_12__value_typeIjNS_6vectorIcNS7_IcEEEEEES3_EEEEEC1B8ue170006ILb1EvEEv, symObjAddr: 0x3A9C, symBinAddr: 0x100007410, symSize: 0x2C }
  - { offsetInCU: 0xFC85, offset: 0xFC85, size: 0x8, addend: 0x0, symName: __ZNSt3__117__compressed_pairImNS_19__map_value_compareIjNS_12__value_typeIjNS_6vectorIcNS_9allocatorIcEEEEEENS_4lessIjEELb1EEEEC1B8ue170006IiRKSA_EEOT_OT0_, symObjAddr: 0x3AC8, symBinAddr: 0x10000743C, symSize: 0x3C }
  - { offsetInCU: 0xFCDD, offset: 0xFCDD, size: 0x8, addend: 0x0, symName: __ZNSt3__16__treeINS_12__value_typeIjNS_6vectorIcNS_9allocatorIcEEEEEENS_19__map_value_compareIjS6_NS_4lessIjEELb1EEENS3_IS6_EEE10__end_nodeB8ue170006Ev, symObjAddr: 0x3B04, symBinAddr: 0x100007478, symSize: 0x2C }
  - { offsetInCU: 0xFD03, offset: 0xFD03, size: 0x8, addend: 0x0, symName: __ZNSt3__16__treeINS_12__value_typeIjNS_6vectorIcNS_9allocatorIcEEEEEENS_19__map_value_compareIjS6_NS_4lessIjEELb1EEENS3_IS6_EEE12__begin_nodeB8ue170006Ev, symObjAddr: 0x3B30, symBinAddr: 0x1000074A4, symSize: 0x14 }
  - { offsetInCU: 0xFD29, offset: 0xFD29, size: 0x8, addend: 0x0, symName: __ZNSt3__117__compressed_pairINS_15__tree_end_nodeIPNS_16__tree_node_baseIPvEEEENS_9allocatorINS_11__tree_nodeINS_12__value_typeIjNS_6vectorIcNS7_IcEEEEEES3_EEEEEC2B8ue170006ILb1EvEEv, symObjAddr: 0x3B44, symBinAddr: 0x1000074B8, symSize: 0x34 }
  - { offsetInCU: 0xFD5E, offset: 0xFD5E, size: 0x8, addend: 0x0, symName: __ZNSt3__122__compressed_pair_elemINS_15__tree_end_nodeIPNS_16__tree_node_baseIPvEEEELi0ELb0EEC2B8ue170006ENS_16__value_init_tagE, symObjAddr: 0x3B78, symBinAddr: 0x1000074EC, symSize: 0x2C }
  - { offsetInCU: 0xFD92, offset: 0xFD92, size: 0x8, addend: 0x0, symName: __ZNSt3__122__compressed_pair_elemINS_9allocatorINS_11__tree_nodeINS_12__value_typeIjNS_6vectorIcNS1_IcEEEEEEPvEEEELi1ELb1EEC2B8ue170006ENS_16__value_init_tagE, symObjAddr: 0x3BA4, symBinAddr: 0x100007518, symSize: 0x2C }
  - { offsetInCU: 0xFDC6, offset: 0xFDC6, size: 0x8, addend: 0x0, symName: __ZNSt3__115__tree_end_nodeIPNS_16__tree_node_baseIPvEEEC1B8ue170006Ev, symObjAddr: 0x3BD0, symBinAddr: 0x100007544, symSize: 0x2C }
  - { offsetInCU: 0xFDF0, offset: 0xFDF0, size: 0x8, addend: 0x0, symName: __ZNSt3__115__tree_end_nodeIPNS_16__tree_node_baseIPvEEEC2B8ue170006Ev, symObjAddr: 0x3BFC, symBinAddr: 0x100007570, symSize: 0x18 }
  - { offsetInCU: 0xFE1A, offset: 0xFE1A, size: 0x8, addend: 0x0, symName: __ZNSt3__19allocatorINS_11__tree_nodeINS_12__value_typeIjNS_6vectorIcNS0_IcEEEEEEPvEEEC2B8ue170006Ev, symObjAddr: 0x3C14, symBinAddr: 0x100007588, symSize: 0x2C }
  - { offsetInCU: 0xFE44, offset: 0xFE44, size: 0x8, addend: 0x0, symName: __ZNSt3__116__non_trivial_ifILb1ENS_9allocatorINS_11__tree_nodeINS_12__value_typeIjNS_6vectorIcNS1_IcEEEEEEPvEEEEEC2B8ue170006Ev, symObjAddr: 0x3C40, symBinAddr: 0x1000075B4, symSize: 0x14 }
  - { offsetInCU: 0xFE6E, offset: 0xFE6E, size: 0x8, addend: 0x0, symName: __ZNSt3__117__compressed_pairImNS_19__map_value_compareIjNS_12__value_typeIjNS_6vectorIcNS_9allocatorIcEEEEEENS_4lessIjEELb1EEEEC2B8ue170006IiRKSA_EEOT_OT0_, symObjAddr: 0x3C54, symBinAddr: 0x1000075C8, symSize: 0x44 }
  - { offsetInCU: 0xFEC6, offset: 0xFEC6, size: 0x8, addend: 0x0, symName: __ZNSt3__122__compressed_pair_elemImLi0ELb0EEC2B8ue170006IivEEOT_, symObjAddr: 0x3C98, symBinAddr: 0x10000760C, symSize: 0x24 }
  - { offsetInCU: 0xFF08, offset: 0xFF08, size: 0x8, addend: 0x0, symName: __ZNSt3__122__compressed_pair_elemINS_19__map_value_compareIjNS_12__value_typeIjNS_6vectorIcNS_9allocatorIcEEEEEENS_4lessIjEELb1EEELi1ELb1EEC2B8ue170006IRKSA_vEEOT_, symObjAddr: 0x3CBC, symBinAddr: 0x100007630, symSize: 0x18 }
  - { offsetInCU: 0xFF4A, offset: 0xFF4A, size: 0x8, addend: 0x0, symName: __ZNSt3__114pointer_traitsIPNS_15__tree_end_nodeIPNS_16__tree_node_baseIPvEEEEE10pointer_toB8ue170006ERS6_, symObjAddr: 0x3CD4, symBinAddr: 0x100007648, symSize: 0x14 }
  - { offsetInCU: 0xFF6D, offset: 0xFF6D, size: 0x8, addend: 0x0, symName: __ZNSt3__117__compressed_pairINS_15__tree_end_nodeIPNS_16__tree_node_baseIPvEEEENS_9allocatorINS_11__tree_nodeINS_12__value_typeIjNS_6vectorIcNS7_IcEEEEEES3_EEEEE5firstB8ue170006Ev, symObjAddr: 0x3CE8, symBinAddr: 0x10000765C, symSize: 0x24 }
  - { offsetInCU: 0xFF93, offset: 0xFF93, size: 0x8, addend: 0x0, symName: __ZNSt3__122__compressed_pair_elemINS_15__tree_end_nodeIPNS_16__tree_node_baseIPvEEEELi0ELb0EE5__getB8ue170006Ev, symObjAddr: 0x3D0C, symBinAddr: 0x100007680, symSize: 0x14 }
  - { offsetInCU: 0xFFB9, offset: 0xFFB9, size: 0x8, addend: 0x0, symName: __ZNSt3__13mapIjNS_6vectorIcNS_9allocatorIcEEEENS_4lessIjEENS2_INS_4pairIKjS4_EEEEED2B8ue170006Ev, symObjAddr: 0x3D20, symBinAddr: 0x100007694, symSize: 0x2C }
  - { offsetInCU: 0xFFE3, offset: 0xFFE3, size: 0x8, addend: 0x0, symName: __ZNSt3__16__treeINS_12__value_typeIjNS_6vectorIcNS_9allocatorIcEEEEEENS_19__map_value_compareIjS6_NS_4lessIjEELb1EEENS3_IS6_EEED1Ev, symObjAddr: 0x3D4C, symBinAddr: 0x1000076C0, symSize: 0x2C }
  - { offsetInCU: 0x1000F, offset: 0x1000F, size: 0x8, addend: 0x0, symName: __ZNSt3__16__treeINS_12__value_typeIjNS_6vectorIcNS_9allocatorIcEEEEEENS_19__map_value_compareIjS6_NS_4lessIjEELb1EEENS3_IS6_EEED2Ev, symObjAddr: 0x3D78, symBinAddr: 0x1000076EC, symSize: 0x38 }
  - { offsetInCU: 0x1003B, offset: 0x1003B, size: 0x8, addend: 0x0, symName: __ZNSt3__16__treeINS_12__value_typeIjNS_6vectorIcNS_9allocatorIcEEEEEENS_19__map_value_compareIjS6_NS_4lessIjEELb1EEENS3_IS6_EEE7destroyEPNS_11__tree_nodeIS6_PvEE, symObjAddr: 0x3DB0, symBinAddr: 0x100007724, symSize: 0xC0 }
  - { offsetInCU: 0x1008F, offset: 0x1008F, size: 0x8, addend: 0x0, symName: __ZNKSt3__16__treeINS_12__value_typeIjNS_6vectorIcNS_9allocatorIcEEEEEENS_19__map_value_compareIjS6_NS_4lessIjEELb1EEENS3_IS6_EEE6__rootB8ue170006Ev, symObjAddr: 0x3E70, symBinAddr: 0x1000077E4, symSize: 0x28 }
  - { offsetInCU: 0x100B5, offset: 0x100B5, size: 0x8, addend: 0x0, symName: __ZNSt3__16__treeINS_12__value_typeIjNS_6vectorIcNS_9allocatorIcEEEEEENS_19__map_value_compareIjS6_NS_4lessIjEELb1EEENS3_IS6_EEE12__node_allocB8ue170006Ev, symObjAddr: 0x3E98, symBinAddr: 0x10000780C, symSize: 0x28 }
  - { offsetInCU: 0x100DB, offset: 0x100DB, size: 0x8, addend: 0x0, symName: __ZNSt3__116allocator_traitsINS_9allocatorINS_11__tree_nodeINS_12__value_typeIjNS_6vectorIcNS1_IcEEEEEEPvEEEEE7destroyB8ue170006INS_4pairIKjS6_EEvvEEvRSA_PT_, symObjAddr: 0x3EC0, symBinAddr: 0x100007834, symSize: 0x28 }
  - { offsetInCU: 0x10116, offset: 0x10116, size: 0x8, addend: 0x0, symName: __ZNSt3__122__tree_key_value_typesINS_12__value_typeIjNS_6vectorIcNS_9allocatorIcEEEEEEE9__get_ptrB8ue170006ERS6_, symObjAddr: 0x3EE8, symBinAddr: 0x10000785C, symSize: 0x24 }
  - { offsetInCU: 0x1013A, offset: 0x1013A, size: 0x8, addend: 0x0, symName: __ZNSt3__116allocator_traitsINS_9allocatorINS_11__tree_nodeINS_12__value_typeIjNS_6vectorIcNS1_IcEEEEEEPvEEEEE10deallocateB8ue170006ERSA_PS9_m, symObjAddr: 0x3F0C, symBinAddr: 0x100007880, symSize: 0x34 }
  - { offsetInCU: 0x1017C, offset: 0x1017C, size: 0x8, addend: 0x0, symName: __ZNSt3__117__compressed_pairINS_15__tree_end_nodeIPNS_16__tree_node_baseIPvEEEENS_9allocatorINS_11__tree_nodeINS_12__value_typeIjNS_6vectorIcNS7_IcEEEEEES3_EEEEE6secondB8ue170006Ev, symObjAddr: 0x3F40, symBinAddr: 0x1000078B4, symSize: 0x24 }
  - { offsetInCU: 0x101A2, offset: 0x101A2, size: 0x8, addend: 0x0, symName: __ZNSt3__122__compressed_pair_elemINS_9allocatorINS_11__tree_nodeINS_12__value_typeIjNS_6vectorIcNS1_IcEEEEEEPvEEEELi1ELb1EE5__getB8ue170006Ev, symObjAddr: 0x3F64, symBinAddr: 0x1000078D8, symSize: 0x14 }
  - { offsetInCU: 0x101C8, offset: 0x101C8, size: 0x8, addend: 0x0, symName: __ZNSt3__14pairIKjNS_6vectorIcNS_9allocatorIcEEEEED1Ev, symObjAddr: 0x3F78, symBinAddr: 0x1000078EC, symSize: 0x2C }
  - { offsetInCU: 0x101F4, offset: 0x101F4, size: 0x8, addend: 0x0, symName: __ZNSt3__14pairIKjNS_6vectorIcNS_9allocatorIcEEEEED2Ev, symObjAddr: 0x3FA4, symBinAddr: 0x100007918, symSize: 0x30 }
  - { offsetInCU: 0x10220, offset: 0x10220, size: 0x8, addend: 0x0, symName: __ZNSt3__112__value_typeIjNS_6vectorIcNS_9allocatorIcEEEEE11__get_valueB8ue170006Ev, symObjAddr: 0x3FD4, symBinAddr: 0x100007948, symSize: 0x14 }
  - { offsetInCU: 0x10246, offset: 0x10246, size: 0x8, addend: 0x0, symName: __ZNSt3__19allocatorINS_11__tree_nodeINS_12__value_typeIjNS_6vectorIcNS0_IcEEEEEEPvEEE10deallocateB8ue170006EPS8_m, symObjAddr: 0x3FE8, symBinAddr: 0x10000795C, symSize: 0x70 }
  - { offsetInCU: 0x10288, offset: 0x10288, size: 0x8, addend: 0x0, symName: __ZNKSt3__16__treeINS_12__value_typeIjNS_6vectorIcNS_9allocatorIcEEEEEENS_19__map_value_compareIjS6_NS_4lessIjEELb1EEENS3_IS6_EEE10__end_nodeB8ue170006Ev, symObjAddr: 0x40D4, symBinAddr: 0x100007A48, symSize: 0x2C }
  - { offsetInCU: 0x102AE, offset: 0x102AE, size: 0x8, addend: 0x0, symName: __ZNKSt3__117__compressed_pairINS_15__tree_end_nodeIPNS_16__tree_node_baseIPvEEEENS_9allocatorINS_11__tree_nodeINS_12__value_typeIjNS_6vectorIcNS7_IcEEEEEES3_EEEEE5firstB8ue170006Ev, symObjAddr: 0x4100, symBinAddr: 0x100007A74, symSize: 0x24 }
  - { offsetInCU: 0x102D4, offset: 0x102D4, size: 0x8, addend: 0x0, symName: __ZNKSt3__122__compressed_pair_elemINS_15__tree_end_nodeIPNS_16__tree_node_baseIPvEEEELi0ELb0EE5__getB8ue170006Ev, symObjAddr: 0x4124, symBinAddr: 0x100007A98, symSize: 0x14 }
  - { offsetInCU: 0x102FA, offset: 0x102FA, size: 0x8, addend: 0x0, symName: __ZNKSt3__16__treeINS_12__value_typeIjNS_6vectorIcNS_9allocatorIcEEEEEENS_19__map_value_compareIjS6_NS_4lessIjEELb1EEENS3_IS6_EEE14__count_uniqueIjEEmRKT_, symObjAddr: 0x4138, symBinAddr: 0x100007AAC, symSize: 0xC8 }
  - { offsetInCU: 0x10349, offset: 0x10349, size: 0x8, addend: 0x0, symName: __ZNKSt3__16__treeINS_12__value_typeIjNS_6vectorIcNS_9allocatorIcEEEEEENS_19__map_value_compareIjS6_NS_4lessIjEELb1EEENS3_IS6_EEE10value_compB8ue170006Ev, symObjAddr: 0x4200, symBinAddr: 0x100007B74, symSize: 0x28 }
  - { offsetInCU: 0x1036F, offset: 0x1036F, size: 0x8, addend: 0x0, symName: __ZNKSt3__119__map_value_compareIjNS_12__value_typeIjNS_6vectorIcNS_9allocatorIcEEEEEENS_4lessIjEELb1EEclB8ue170006ERKjRKS6_, symObjAddr: 0x4228, symBinAddr: 0x100007B9C, symSize: 0x50 }
  - { offsetInCU: 0x103B3, offset: 0x103B3, size: 0x8, addend: 0x0, symName: __ZNKSt3__119__map_value_compareIjNS_12__value_typeIjNS_6vectorIcNS_9allocatorIcEEEEEENS_4lessIjEELb1EEclB8ue170006ERKS6_RKj, symObjAddr: 0x4278, symBinAddr: 0x100007BEC, symSize: 0x48 }
  - { offsetInCU: 0x103F7, offset: 0x103F7, size: 0x8, addend: 0x0, symName: __ZNKSt3__117__compressed_pairImNS_19__map_value_compareIjNS_12__value_typeIjNS_6vectorIcNS_9allocatorIcEEEEEENS_4lessIjEELb1EEEE6secondB8ue170006Ev, symObjAddr: 0x42C0, symBinAddr: 0x100007C34, symSize: 0x24 }
  - { offsetInCU: 0x1041D, offset: 0x1041D, size: 0x8, addend: 0x0, symName: __ZNKSt3__122__compressed_pair_elemINS_19__map_value_compareIjNS_12__value_typeIjNS_6vectorIcNS_9allocatorIcEEEEEENS_4lessIjEELb1EEELi1ELb1EE5__getB8ue170006Ev, symObjAddr: 0x42E4, symBinAddr: 0x100007C58, symSize: 0x14 }
  - { offsetInCU: 0x10443, offset: 0x10443, size: 0x8, addend: 0x0, symName: __ZNKSt3__14lessIjEclB8ue170006ERKjS3_, symObjAddr: 0x42F8, symBinAddr: 0x100007C6C, symSize: 0x34 }
  - { offsetInCU: 0x10487, offset: 0x10487, size: 0x8, addend: 0x0, symName: __ZNKSt3__112__value_typeIjNS_6vectorIcNS_9allocatorIcEEEEE11__get_valueB8ue170006Ev, symObjAddr: 0x432C, symBinAddr: 0x100007CA0, symSize: 0x14 }
  - { offsetInCU: 0x104AD, offset: 0x104AD, size: 0x8, addend: 0x0, symName: __ZNSt3__16__treeINS_12__value_typeIjNS_6vectorIcNS_9allocatorIcEEEEEENS_19__map_value_compareIjS6_NS_4lessIjEELb1EEENS3_IS6_EEE12__find_equalIjEERPNS_16__tree_node_baseIPvEERPNS_15__tree_end_nodeISH_EERKT_, symObjAddr: 0x4340, symBinAddr: 0x100007CB4, symSize: 0x184 }
  - { offsetInCU: 0x1051A, offset: 0x1051A, size: 0x8, addend: 0x0, symName: __ZNSt3__13mapIjNS_6vectorIcNS_9allocatorIcEEEENS_4lessIjEENS2_INS_4pairIKjS4_EEEEE25__construct_node_with_keyERS8_, symObjAddr: 0x44C4, symBinAddr: 0x100007E38, symSize: 0x144 }
  - { offsetInCU: 0x10570, offset: 0x10570, size: 0x8, addend: 0x0, symName: __ZNSt3__16__treeINS_12__value_typeIjNS_6vectorIcNS_9allocatorIcEEEEEENS_19__map_value_compareIjS6_NS_4lessIjEELb1EEENS3_IS6_EEE16__insert_node_atEPNS_15__tree_end_nodeIPNS_16__tree_node_baseIPvEEEERSH_SH_, symObjAddr: 0x4608, symBinAddr: 0x100007F7C, symSize: 0xCC }
  - { offsetInCU: 0x105C5, offset: 0x105C5, size: 0x8, addend: 0x0, symName: __ZNKSt3__110unique_ptrINS_11__tree_nodeINS_12__value_typeIjNS_6vectorIcNS_9allocatorIcEEEEEEPvEENS_21__map_node_destructorINS4_IS9_EEEEE3getB8ue170006Ev, symObjAddr: 0x46D4, symBinAddr: 0x100008048, symSize: 0x28 }
  - { offsetInCU: 0x105EB, offset: 0x105EB, size: 0x8, addend: 0x0, symName: __ZNSt3__110unique_ptrINS_11__tree_nodeINS_12__value_typeIjNS_6vectorIcNS_9allocatorIcEEEEEEPvEENS_21__map_node_destructorINS4_IS9_EEEEE7releaseB8ue170006Ev, symObjAddr: 0x46FC, symBinAddr: 0x100008070, symSize: 0x44 }
  - { offsetInCU: 0x10620, offset: 0x10620, size: 0x8, addend: 0x0, symName: __ZNSt3__110unique_ptrINS_11__tree_nodeINS_12__value_typeIjNS_6vectorIcNS_9allocatorIcEEEEEEPvEENS_21__map_node_destructorINS4_IS9_EEEEED1B8ue170006Ev, symObjAddr: 0x4740, symBinAddr: 0x1000080B4, symSize: 0x2C }
  - { offsetInCU: 0x1064A, offset: 0x1064A, size: 0x8, addend: 0x0, symName: __ZNKSt3__16__treeINS_12__value_typeIjNS_6vectorIcNS_9allocatorIcEEEEEENS_19__map_value_compareIjS6_NS_4lessIjEELb1EEENS3_IS6_EEE10__root_ptrB8ue170006Ev, symObjAddr: 0x476C, symBinAddr: 0x1000080E0, symSize: 0x24 }
  - { offsetInCU: 0x10670, offset: 0x10670, size: 0x8, addend: 0x0, symName: __ZNSt3__16__treeINS_12__value_typeIjNS_6vectorIcNS_9allocatorIcEEEEEENS_19__map_value_compareIjS6_NS_4lessIjEELb1EEENS3_IS6_EEE10value_compB8ue170006Ev, symObjAddr: 0x4790, symBinAddr: 0x100008104, symSize: 0x28 }
  - { offsetInCU: 0x10696, offset: 0x10696, size: 0x8, addend: 0x0, symName: __ZNSt3__117__compressed_pairImNS_19__map_value_compareIjNS_12__value_typeIjNS_6vectorIcNS_9allocatorIcEEEEEENS_4lessIjEELb1EEEE6secondB8ue170006Ev, symObjAddr: 0x47B8, symBinAddr: 0x10000812C, symSize: 0x24 }
  - { offsetInCU: 0x106BC, offset: 0x106BC, size: 0x8, addend: 0x0, symName: __ZNSt3__122__compressed_pair_elemINS_19__map_value_compareIjNS_12__value_typeIjNS_6vectorIcNS_9allocatorIcEEEEEENS_4lessIjEELb1EEELi1ELb1EE5__getB8ue170006Ev, symObjAddr: 0x47DC, symBinAddr: 0x100008150, symSize: 0x14 }
  - { offsetInCU: 0x106E2, offset: 0x106E2, size: 0x8, addend: 0x0, symName: __ZNSt3__116allocator_traitsINS_9allocatorINS_11__tree_nodeINS_12__value_typeIjNS_6vectorIcNS1_IcEEEEEEPvEEEEE8allocateB8ue170006ERSA_m, symObjAddr: 0x47F0, symBinAddr: 0x100008164, symSize: 0x2C }
  - { offsetInCU: 0x10715, offset: 0x10715, size: 0x8, addend: 0x0, symName: __ZNSt3__121__map_node_destructorINS_9allocatorINS_11__tree_nodeINS_12__value_typeIjNS_6vectorIcNS1_IcEEEEEEPvEEEEEC1B8ue170006ERSA_, symObjAddr: 0x481C, symBinAddr: 0x100008190, symSize: 0x34 }
  - { offsetInCU: 0x10753, offset: 0x10753, size: 0x8, addend: 0x0, symName: __ZNSt3__110unique_ptrINS_11__tree_nodeINS_12__value_typeIjNS_6vectorIcNS_9allocatorIcEEEEEEPvEENS_21__map_node_destructorINS4_IS9_EEEEEC1B8ue170006ILb1EvEEPS9_NS_16__dependent_typeINS_27__unique_ptr_deleter_sfinaeISC_EEXT_EE20__good_rval_ref_typeE, symObjAddr: 0x4850, symBinAddr: 0x1000081C4, symSize: 0x3C }
  - { offsetInCU: 0x107A9, offset: 0x107A9, size: 0x8, addend: 0x0, symName: __ZNSt3__116allocator_traitsINS_9allocatorINS_11__tree_nodeINS_12__value_typeIjNS_6vectorIcNS1_IcEEEEEEPvEEEEE9constructB8ue170006IKjJRSD_EvEEvRSA_PT_DpOT0_, symObjAddr: 0x488C, symBinAddr: 0x100008200, symSize: 0x34 }
  - { offsetInCU: 0x10800, offset: 0x10800, size: 0x8, addend: 0x0, symName: __ZNKSt3__110unique_ptrINS_11__tree_nodeINS_12__value_typeIjNS_6vectorIcNS_9allocatorIcEEEEEEPvEENS_21__map_node_destructorINS4_IS9_EEEEEptB8ue170006Ev, symObjAddr: 0x48C0, symBinAddr: 0x100008234, symSize: 0x28 }
  - { offsetInCU: 0x10826, offset: 0x10826, size: 0x8, addend: 0x0, symName: __ZNSt3__110unique_ptrINS_11__tree_nodeINS_12__value_typeIjNS_6vectorIcNS_9allocatorIcEEEEEEPvEENS_21__map_node_destructorINS4_IS9_EEEEE11get_deleterB8ue170006Ev, symObjAddr: 0x48E8, symBinAddr: 0x10000825C, symSize: 0x24 }
  - { offsetInCU: 0x10851, offset: 0x10851, size: 0x8, addend: 0x0, symName: __ZNSt3__116allocator_traitsINS_9allocatorINS_11__tree_nodeINS_12__value_typeIjNS_6vectorIcNS1_IcEEEEEEPvEEEEE9constructB8ue170006IS6_JEvEEvRSA_PT_DpOT0_, symObjAddr: 0x490C, symBinAddr: 0x100008280, symSize: 0x2C }
  - { offsetInCU: 0x10893, offset: 0x10893, size: 0x8, addend: 0x0, symName: __ZNSt3__19allocatorINS_11__tree_nodeINS_12__value_typeIjNS_6vectorIcNS0_IcEEEEEEPvEEE8allocateB8ue170006Em, symObjAddr: 0x4938, symBinAddr: 0x1000082AC, symSize: 0x84 }
  - { offsetInCU: 0x108D1, offset: 0x108D1, size: 0x8, addend: 0x0, symName: __ZNSt3__116allocator_traitsINS_9allocatorINS_11__tree_nodeINS_12__value_typeIjNS_6vectorIcNS1_IcEEEEEEPvEEEEE8max_sizeB8ue170006ISA_vEEmRKSA_, symObjAddr: 0x49BC, symBinAddr: 0x100008330, symSize: 0x24 }
  - { offsetInCU: 0x108FF, offset: 0x108FF, size: 0x8, addend: 0x0, symName: __ZNKSt3__19allocatorINS_11__tree_nodeINS_12__value_typeIjNS_6vectorIcNS0_IcEEEEEEPvEEE8max_sizeB8ue170006Ev, symObjAddr: 0x49E0, symBinAddr: 0x100008354, symSize: 0x14 }
  - { offsetInCU: 0x10925, offset: 0x10925, size: 0x8, addend: 0x0, symName: __ZNSt3__121__map_node_destructorINS_9allocatorINS_11__tree_nodeINS_12__value_typeIjNS_6vectorIcNS1_IcEEEEEEPvEEEEEC2B8ue170006ERSA_, symObjAddr: 0x49F4, symBinAddr: 0x100008368, symSize: 0x28 }
  - { offsetInCU: 0x1095E, offset: 0x1095E, size: 0x8, addend: 0x0, symName: __ZNSt3__110unique_ptrINS_11__tree_nodeINS_12__value_typeIjNS_6vectorIcNS_9allocatorIcEEEEEEPvEENS_21__map_node_destructorINS4_IS9_EEEEEC2B8ue170006ILb1EvEEPS9_NS_16__dependent_typeINS_27__unique_ptr_deleter_sfinaeISC_EEXT_EE20__good_rval_ref_typeE, symObjAddr: 0x4A1C, symBinAddr: 0x100008390, symSize: 0x5C }
  - { offsetInCU: 0x109AF, offset: 0x109AF, size: 0x8, addend: 0x0, symName: __ZNSt3__117__compressed_pairIPNS_11__tree_nodeINS_12__value_typeIjNS_6vectorIcNS_9allocatorIcEEEEEEPvEENS_21__map_node_destructorINS4_IS9_EEEEEC1B8ue170006IRSA_SD_EEOT_OT0_, symObjAddr: 0x4A78, symBinAddr: 0x1000083EC, symSize: 0x3C }
  - { offsetInCU: 0x10A07, offset: 0x10A07, size: 0x8, addend: 0x0, symName: __ZNSt3__117__compressed_pairIPNS_11__tree_nodeINS_12__value_typeIjNS_6vectorIcNS_9allocatorIcEEEEEEPvEENS_21__map_node_destructorINS4_IS9_EEEEEC2B8ue170006IRSA_SD_EEOT_OT0_, symObjAddr: 0x4AB4, symBinAddr: 0x100008428, symSize: 0x48 }
  - { offsetInCU: 0x10A5F, offset: 0x10A5F, size: 0x8, addend: 0x0, symName: __ZNSt3__122__compressed_pair_elemIPNS_11__tree_nodeINS_12__value_typeIjNS_6vectorIcNS_9allocatorIcEEEEEEPvEELi0ELb0EEC2B8ue170006IRSA_vEEOT_, symObjAddr: 0x4AFC, symBinAddr: 0x100008470, symSize: 0x24 }
  - { offsetInCU: 0x10AA1, offset: 0x10AA1, size: 0x8, addend: 0x0, symName: __ZNSt3__122__compressed_pair_elemINS_21__map_node_destructorINS_9allocatorINS_11__tree_nodeINS_12__value_typeIjNS_6vectorIcNS2_IcEEEEEEPvEEEEEELi1ELb0EEC2B8ue170006ISC_vEEOT_, symObjAddr: 0x4B20, symBinAddr: 0x100008494, symSize: 0x24 }
  - { offsetInCU: 0x10AE3, offset: 0x10AE3, size: 0x8, addend: 0x0, symName: __ZNSt3__19allocatorINS_11__tree_nodeINS_12__value_typeIjNS_6vectorIcNS0_IcEEEEEEPvEEE9constructB8ue170006IKjJRSB_EEEvPT_DpOT0_, symObjAddr: 0x4B44, symBinAddr: 0x1000084B8, symSize: 0x28 }
  - { offsetInCU: 0x10B39, offset: 0x10B39, size: 0x8, addend: 0x0, symName: __ZNKSt3__117__compressed_pairIPNS_11__tree_nodeINS_12__value_typeIjNS_6vectorIcNS_9allocatorIcEEEEEEPvEENS_21__map_node_destructorINS4_IS9_EEEEE5firstB8ue170006Ev, symObjAddr: 0x4B6C, symBinAddr: 0x1000084E0, symSize: 0x24 }
  - { offsetInCU: 0x10B5F, offset: 0x10B5F, size: 0x8, addend: 0x0, symName: __ZNKSt3__122__compressed_pair_elemIPNS_11__tree_nodeINS_12__value_typeIjNS_6vectorIcNS_9allocatorIcEEEEEEPvEELi0ELb0EE5__getB8ue170006Ev, symObjAddr: 0x4B90, symBinAddr: 0x100008504, symSize: 0x14 }
  - { offsetInCU: 0x10B85, offset: 0x10B85, size: 0x8, addend: 0x0, symName: __ZNSt3__117__compressed_pairIPNS_11__tree_nodeINS_12__value_typeIjNS_6vectorIcNS_9allocatorIcEEEEEEPvEENS_21__map_node_destructorINS4_IS9_EEEEE6secondB8ue170006Ev, symObjAddr: 0x4BA4, symBinAddr: 0x100008518, symSize: 0x28 }
  - { offsetInCU: 0x10BAB, offset: 0x10BAB, size: 0x8, addend: 0x0, symName: __ZNSt3__122__compressed_pair_elemINS_21__map_node_destructorINS_9allocatorINS_11__tree_nodeINS_12__value_typeIjNS_6vectorIcNS2_IcEEEEEEPvEEEEEELi1ELb0EE5__getB8ue170006Ev, symObjAddr: 0x4BCC, symBinAddr: 0x100008540, symSize: 0x14 }
  - { offsetInCU: 0x10BD1, offset: 0x10BD1, size: 0x8, addend: 0x0, symName: __ZNSt3__19allocatorINS_11__tree_nodeINS_12__value_typeIjNS_6vectorIcNS0_IcEEEEEEPvEEE9constructB8ue170006IS5_JEEEvPT_DpOT0_, symObjAddr: 0x4BE0, symBinAddr: 0x100008554, symSize: 0x28 }
  - { offsetInCU: 0x10C13, offset: 0x10C13, size: 0x8, addend: 0x0, symName: __ZNSt3__16vectorIcNS_9allocatorIcEEEC1B8ue170006Ev, symObjAddr: 0x4C08, symBinAddr: 0x10000857C, symSize: 0x2C }
  - { offsetInCU: 0x10C3D, offset: 0x10C3D, size: 0x8, addend: 0x0, symName: __ZNSt3__16vectorIcNS_9allocatorIcEEEC2B8ue170006Ev, symObjAddr: 0x4C34, symBinAddr: 0x1000085A8, symSize: 0x44 }
  - { offsetInCU: 0x10C6C, offset: 0x10C6C, size: 0x8, addend: 0x0, symName: __ZNSt3__117__compressed_pairIPcNS_9allocatorIcEEEC1B8ue170006IDnNS_18__default_init_tagEEEOT_OT0_, symObjAddr: 0x4C78, symBinAddr: 0x1000085EC, symSize: 0x3C }
  - { offsetInCU: 0x10CC4, offset: 0x10CC4, size: 0x8, addend: 0x0, symName: __ZNSt3__117__compressed_pairIPcNS_9allocatorIcEEEC2B8ue170006IDnNS_18__default_init_tagEEEOT_OT0_, symObjAddr: 0x4CB4, symBinAddr: 0x100008628, symSize: 0x40 }
  - { offsetInCU: 0x10D1C, offset: 0x10D1C, size: 0x8, addend: 0x0, symName: __ZNSt3__122__compressed_pair_elemIPcLi0ELb0EEC2B8ue170006IDnvEEOT_, symObjAddr: 0x4CF4, symBinAddr: 0x100008668, symSize: 0x1C }
  - { offsetInCU: 0x10D5E, offset: 0x10D5E, size: 0x8, addend: 0x0, symName: __ZNSt3__16__treeINS_12__value_typeIjNS_6vectorIcNS_9allocatorIcEEEEEENS_19__map_value_compareIjS6_NS_4lessIjEELb1EEENS3_IS6_EEE4sizeB8ue170006Ev, symObjAddr: 0x5050, symBinAddr: 0x1000089C4, symSize: 0x28 }
  - { offsetInCU: 0x10D84, offset: 0x10D84, size: 0x8, addend: 0x0, symName: __ZNKSt3__116__tree_node_baseIPvE15__parent_unsafeB8ue170006Ev, symObjAddr: 0x5078, symBinAddr: 0x1000089EC, symSize: 0x18 }
  - { offsetInCU: 0x10DAA, offset: 0x10DAA, size: 0x8, addend: 0x0, symName: __ZNSt3__116__tree_node_baseIPvE12__set_parentB8ue170006EPS2_, symObjAddr: 0x5274, symBinAddr: 0x100008BE8, symSize: 0x20 }
  - { offsetInCU: 0x10DDF, offset: 0x10DDF, size: 0x8, addend: 0x0, symName: __ZNSt3__117__compressed_pairImNS_19__map_value_compareIjNS_12__value_typeIjNS_6vectorIcNS_9allocatorIcEEEEEENS_4lessIjEELb1EEEE5firstB8ue170006Ev, symObjAddr: 0x5294, symBinAddr: 0x100008C08, symSize: 0x24 }
  - { offsetInCU: 0x10E05, offset: 0x10E05, size: 0x8, addend: 0x0, symName: __ZNSt3__122__compressed_pair_elemImLi0ELb0EE5__getB8ue170006Ev, symObjAddr: 0x52B8, symBinAddr: 0x100008C2C, symSize: 0x14 }
  - { offsetInCU: 0x10E2B, offset: 0x10E2B, size: 0x8, addend: 0x0, symName: __ZNSt3__117__compressed_pairIPNS_11__tree_nodeINS_12__value_typeIjNS_6vectorIcNS_9allocatorIcEEEEEEPvEENS_21__map_node_destructorINS4_IS9_EEEEE5firstB8ue170006Ev, symObjAddr: 0x52CC, symBinAddr: 0x100008C40, symSize: 0x24 }
  - { offsetInCU: 0x10E51, offset: 0x10E51, size: 0x8, addend: 0x0, symName: __ZNSt3__122__compressed_pair_elemIPNS_11__tree_nodeINS_12__value_typeIjNS_6vectorIcNS_9allocatorIcEEEEEEPvEELi0ELb0EE5__getB8ue170006Ev, symObjAddr: 0x52F0, symBinAddr: 0x100008C64, symSize: 0x14 }
  - { offsetInCU: 0x10E77, offset: 0x10E77, size: 0x8, addend: 0x0, symName: __ZNSt3__110unique_ptrINS_11__tree_nodeINS_12__value_typeIjNS_6vectorIcNS_9allocatorIcEEEEEEPvEENS_21__map_node_destructorINS4_IS9_EEEEED2B8ue170006Ev, symObjAddr: 0x5304, symBinAddr: 0x100008C78, symSize: 0x30 }
  - { offsetInCU: 0x10EA1, offset: 0x10EA1, size: 0x8, addend: 0x0, symName: __ZNSt3__110unique_ptrINS_11__tree_nodeINS_12__value_typeIjNS_6vectorIcNS_9allocatorIcEEEEEEPvEENS_21__map_node_destructorINS4_IS9_EEEEE5resetB8ue170006EPS9_, symObjAddr: 0x5334, symBinAddr: 0x100008CA8, symSize: 0x78 }
  - { offsetInCU: 0x10EE5, offset: 0x10EE5, size: 0x8, addend: 0x0, symName: __ZNSt3__121__map_node_destructorINS_9allocatorINS_11__tree_nodeINS_12__value_typeIjNS_6vectorIcNS1_IcEEEEEEPvEEEEEclB8ue170006EPS9_, symObjAddr: 0x53AC, symBinAddr: 0x100008D20, symSize: 0xE4 }
  - { offsetInCU: 0x10F1A, offset: 0x10F1A, size: 0x8, addend: 0x0, symName: __ZNSt3__116allocator_traitsINS_9allocatorINS_11__tree_nodeINS_12__value_typeIjNS_6vectorIcNS1_IcEEEEEEPvEEEEE7destroyB8ue170006IS6_vvEEvRSA_PT_, symObjAddr: 0x5490, symBinAddr: 0x100008E04, symSize: 0x28 }
  - { offsetInCU: 0x10F55, offset: 0x10F55, size: 0x8, addend: 0x0, symName: __ZNSt3__116allocator_traitsINS_9allocatorINS_11__tree_nodeINS_12__value_typeIjNS_6vectorIcNS1_IcEEEEEEPvEEEEE7destroyB8ue170006IKjvvEEvRSA_PT_, symObjAddr: 0x54B8, symBinAddr: 0x100008E2C, symSize: 0x14 }
  - { offsetInCU: 0x10F90, offset: 0x10F90, size: 0x8, addend: 0x0, symName: __ZNSt3__16__treeINS_12__value_typeIjNS_6vectorIcNS_9allocatorIcEEEEEENS_19__map_value_compareIjS6_NS_4lessIjEELb1EEENS3_IS6_EEE14__erase_uniqueIjEEmRKT_, symObjAddr: 0x54CC, symBinAddr: 0x100008E40, symSize: 0xA0 }
  - { offsetInCU: 0x10FDF, offset: 0x10FDF, size: 0x8, addend: 0x0, symName: __ZNSt3__16__treeINS_12__value_typeIjNS_6vectorIcNS_9allocatorIcEEEEEENS_19__map_value_compareIjS6_NS_4lessIjEELb1EEENS3_IS6_EEE4findIjEENS_15__tree_iteratorIS6_PNS_11__tree_nodeIS6_PvEElEERKT_, symObjAddr: 0x556C, symBinAddr: 0x100008EE0, symSize: 0xF8 }
  - { offsetInCU: 0x1102E, offset: 0x1102E, size: 0x8, addend: 0x0, symName: __ZNSt3__16__treeINS_12__value_typeIjNS_6vectorIcNS_9allocatorIcEEEEEENS_19__map_value_compareIjS6_NS_4lessIjEELb1EEENS3_IS6_EEE3endB8ue170006Ev, symObjAddr: 0x5694, symBinAddr: 0x100009008, symSize: 0x34 }
  - { offsetInCU: 0x11054, offset: 0x11054, size: 0x8, addend: 0x0, symName: __ZNSt3__16__treeINS_12__value_typeIjNS_6vectorIcNS_9allocatorIcEEEEEENS_19__map_value_compareIjS6_NS_4lessIjEELb1EEENS3_IS6_EEE5eraseENS_21__tree_const_iteratorIS6_PNS_11__tree_nodeIS6_PvEElEE, symObjAddr: 0x56C8, symBinAddr: 0x10000903C, symSize: 0x98 }
  - { offsetInCU: 0x110B8, offset: 0x110B8, size: 0x8, addend: 0x0, symName: __ZNSt3__121__tree_const_iteratorINS_12__value_typeIjNS_6vectorIcNS_9allocatorIcEEEEEEPNS_11__tree_nodeIS6_PvEElEC1B8ue170006ENS_15__tree_iteratorIS6_SA_lEE, symObjAddr: 0x5760, symBinAddr: 0x1000090D4, symSize: 0x34 }
  - { offsetInCU: 0x110F1, offset: 0x110F1, size: 0x8, addend: 0x0, symName: __ZNSt3__16__treeINS_12__value_typeIjNS_6vectorIcNS_9allocatorIcEEEEEENS_19__map_value_compareIjS6_NS_4lessIjEELb1EEENS3_IS6_EEE13__lower_boundIjEENS_15__tree_iteratorIS6_PNS_11__tree_nodeIS6_PvEElEERKT_SI_PNS_15__tree_end_nodeIPNS_16__tree_node_baseISG_EEEE, symObjAddr: 0x5794, symBinAddr: 0x100009108, symSize: 0xA4 }
  - { offsetInCU: 0x1114F, offset: 0x1114F, size: 0x8, addend: 0x0, symName: __ZNKSt3__115__tree_iteratorINS_12__value_typeIjNS_6vectorIcNS_9allocatorIcEEEEEEPNS_11__tree_nodeIS6_PvEElEdeB8ue170006Ev, symObjAddr: 0x586C, symBinAddr: 0x1000091E0, symSize: 0x28 }
  - { offsetInCU: 0x11175, offset: 0x11175, size: 0x8, addend: 0x0, symName: __ZNSt3__115__tree_iteratorINS_12__value_typeIjNS_6vectorIcNS_9allocatorIcEEEEEEPNS_11__tree_nodeIS6_PvEElEC1B8ue170006EPNS_15__tree_end_nodeIPNS_16__tree_node_baseIS8_EEEE, symObjAddr: 0x5894, symBinAddr: 0x100009208, symSize: 0x34 }
  - { offsetInCU: 0x111AE, offset: 0x111AE, size: 0x8, addend: 0x0, symName: __ZNSt3__115__tree_iteratorINS_12__value_typeIjNS_6vectorIcNS_9allocatorIcEEEEEEPNS_11__tree_nodeIS6_PvEElEC2B8ue170006EPNS_15__tree_end_nodeIPNS_16__tree_node_baseIS8_EEEE, symObjAddr: 0x58C8, symBinAddr: 0x10000923C, symSize: 0x20 }
  - { offsetInCU: 0x111E7, offset: 0x111E7, size: 0x8, addend: 0x0, symName: __ZNKSt3__115__tree_iteratorINS_12__value_typeIjNS_6vectorIcNS_9allocatorIcEEEEEEPNS_11__tree_nodeIS6_PvEElE8__get_npB8ue170006Ev, symObjAddr: 0x58E8, symBinAddr: 0x10000925C, symSize: 0x18 }
  - { offsetInCU: 0x1120D, offset: 0x1120D, size: 0x8, addend: 0x0, symName: __ZNKSt3__121__tree_const_iteratorINS_12__value_typeIjNS_6vectorIcNS_9allocatorIcEEEEEEPNS_11__tree_nodeIS6_PvEElE8__get_npB8ue170006Ev, symObjAddr: 0x5900, symBinAddr: 0x100009274, symSize: 0x18 }
  - { offsetInCU: 0x11233, offset: 0x11233, size: 0x8, addend: 0x0, symName: __ZNSt3__16__treeINS_12__value_typeIjNS_6vectorIcNS_9allocatorIcEEEEEENS_19__map_value_compareIjS6_NS_4lessIjEELb1EEENS3_IS6_EEE21__remove_node_pointerEPNS_11__tree_nodeIS6_PvEE, symObjAddr: 0x5918, symBinAddr: 0x10000928C, symSize: 0xC8 }
  - { offsetInCU: 0x11279, offset: 0x11279, size: 0x8, addend: 0x0, symName: __ZNKSt3__121__tree_const_iteratorINS_12__value_typeIjNS_6vectorIcNS_9allocatorIcEEEEEEPNS_11__tree_nodeIS6_PvEElEdeB8ue170006Ev, symObjAddr: 0x59E0, symBinAddr: 0x100009354, symSize: 0x28 }
  - { offsetInCU: 0x1129F, offset: 0x1129F, size: 0x8, addend: 0x0, symName: __ZNSt3__115__tree_iteratorINS_12__value_typeIjNS_6vectorIcNS_9allocatorIcEEEEEEPNS_11__tree_nodeIS6_PvEElEC1B8ue170006ESA_, symObjAddr: 0x5A08, symBinAddr: 0x10000937C, symSize: 0x34 }
  - { offsetInCU: 0x112D8, offset: 0x112D8, size: 0x8, addend: 0x0, symName: __ZNSt3__115__tree_iteratorINS_12__value_typeIjNS_6vectorIcNS_9allocatorIcEEEEEEPNS_11__tree_nodeIS6_PvEElEppB8ue170006Ev, symObjAddr: 0x5A3C, symBinAddr: 0x1000093B0, symSize: 0x38 }
  - { offsetInCU: 0x112FE, offset: 0x112FE, size: 0x8, addend: 0x0, symName: __ZNSt3__115__tree_iteratorINS_12__value_typeIjNS_6vectorIcNS_9allocatorIcEEEEEEPNS_11__tree_nodeIS6_PvEElEC2B8ue170006ESA_, symObjAddr: 0x6154, symBinAddr: 0x100009AC8, symSize: 0x20 }
  - { offsetInCU: 0x11337, offset: 0x11337, size: 0x8, addend: 0x0, symName: __ZNSt3__121__tree_const_iteratorINS_12__value_typeIjNS_6vectorIcNS_9allocatorIcEEEEEEPNS_11__tree_nodeIS6_PvEElEC2B8ue170006ENS_15__tree_iteratorIS6_SA_lEE, symObjAddr: 0x62B4, symBinAddr: 0x100009C28, symSize: 0x20 }
  - { offsetInCU: 0x11370, offset: 0x11370, size: 0x8, addend: 0x0, symName: __ZNSt3__16vectorIcNS_9allocatorIcEEEC2IPcLi0EEET_S6_, symObjAddr: 0x62D4, symBinAddr: 0x100009C48, symSize: 0x74 }
  - { offsetInCU: 0x113E6, offset: 0x113E6, size: 0x8, addend: 0x0, symName: __ZNSt3__16vectorIcNS_9allocatorIcEEE16__init_with_sizeB8ue170006IPcS5_EEvT_T0_m, symObjAddr: 0x6374, symBinAddr: 0x100009CE8, symSize: 0xC0 }
  - { offsetInCU: 0x1145A, offset: 0x1145A, size: 0x8, addend: 0x0, symName: __ZNSt3__16vectorIcNS_9allocatorIcEEE16__destroy_vectorC1B8ue170006ERS3_, symObjAddr: 0x6494, symBinAddr: 0x100009E08, symSize: 0x34 }
  - { offsetInCU: 0x11493, offset: 0x11493, size: 0x8, addend: 0x0, symName: __ZNSt3__16vectorIcNS_9allocatorIcEEE11__vallocateB8ue170006Em, symObjAddr: 0x64C8, symBinAddr: 0x100009E3C, symSize: 0xAC }
  - { offsetInCU: 0x114D7, offset: 0x114D7, size: 0x8, addend: 0x0, symName: __ZNSt3__16vectorIcNS_9allocatorIcEEE18__construct_at_endIPcS5_EEvT_T0_m, symObjAddr: 0x6574, symBinAddr: 0x100009EE8, symSize: 0x94 }
  - { offsetInCU: 0x1154D, offset: 0x1154D, size: 0x8, addend: 0x0, symName: __ZNSt3__128__exception_guard_exceptionsINS_6vectorIcNS_9allocatorIcEEE16__destroy_vectorEE10__completeB8ue170006Ev, symObjAddr: 0x6608, symBinAddr: 0x100009F7C, symSize: 0x1C }
  - { offsetInCU: 0x11573, offset: 0x11573, size: 0x8, addend: 0x0, symName: __ZNSt3__128__exception_guard_exceptionsINS_6vectorIcNS_9allocatorIcEEE16__destroy_vectorEED1B8ue170006Ev, symObjAddr: 0x6624, symBinAddr: 0x100009F98, symSize: 0x2C }
  - { offsetInCU: 0x1159D, offset: 0x1159D, size: 0x8, addend: 0x0, symName: __ZNSt3__128__exception_guard_exceptionsINS_6vectorIcNS_9allocatorIcEEE16__destroy_vectorEEC1B8ue170006ES5_, symObjAddr: 0x6650, symBinAddr: 0x100009FC4, symSize: 0x34 }
  - { offsetInCU: 0x115D5, offset: 0x115D5, size: 0x8, addend: 0x0, symName: __ZNSt3__128__exception_guard_exceptionsINS_6vectorIcNS_9allocatorIcEEE16__destroy_vectorEEC2B8ue170006ES5_, symObjAddr: 0x6684, symBinAddr: 0x100009FF8, symSize: 0x24 }
  - { offsetInCU: 0x1160D, offset: 0x1160D, size: 0x8, addend: 0x0, symName: __ZNSt3__16vectorIcNS_9allocatorIcEEE16__destroy_vectorC2B8ue170006ERS3_, symObjAddr: 0x66A8, symBinAddr: 0x10000A01C, symSize: 0x20 }
  - { offsetInCU: 0x11646, offset: 0x11646, size: 0x8, addend: 0x0, symName: __ZNKSt3__16vectorIcNS_9allocatorIcEEE8max_sizeEv, symObjAddr: 0x66C8, symBinAddr: 0x10000A03C, symSize: 0x74 }
  - { offsetInCU: 0x1166E, offset: 0x1166E, size: 0x8, addend: 0x0, symName: __ZNKSt3__16vectorIcNS_9allocatorIcEEE20__throw_length_errorB8ue170006Ev, symObjAddr: 0x673C, symBinAddr: 0x10000A0B0, symSize: 0x1C }
  - { offsetInCU: 0x11694, offset: 0x11694, size: 0x8, addend: 0x0, symName: __ZNSt3__16vectorIcNS_9allocatorIcEEE7__allocB8ue170006Ev, symObjAddr: 0x6798, symBinAddr: 0x10000A10C, symSize: 0x28 }
  - { offsetInCU: 0x116BA, offset: 0x116BA, size: 0x8, addend: 0x0, symName: __ZNSt3__16vectorIcNS_9allocatorIcEEE9__end_capB8ue170006Ev, symObjAddr: 0x67C0, symBinAddr: 0x10000A134, symSize: 0x28 }
  - { offsetInCU: 0x116E0, offset: 0x116E0, size: 0x8, addend: 0x0, symName: __ZNKSt3__16vectorIcNS_9allocatorIcEEE14__annotate_newB8ue170006Em, symObjAddr: 0x67E8, symBinAddr: 0x10000A15C, symSize: 0xAC }
  - { offsetInCU: 0x11715, offset: 0x11715, size: 0x8, addend: 0x0, symName: __ZNKSt3__16vectorIcNS_9allocatorIcEEE7__allocB8ue170006Ev, symObjAddr: 0x68C0, symBinAddr: 0x10000A234, symSize: 0x28 }
  - { offsetInCU: 0x1173B, offset: 0x1173B, size: 0x8, addend: 0x0, symName: __ZNSt3__114numeric_limitsIlE3maxB8ue170006Ev, symObjAddr: 0x68E8, symBinAddr: 0x10000A25C, symSize: 0x14 }
  - { offsetInCU: 0x11759, offset: 0x11759, size: 0x8, addend: 0x0, symName: __ZNKSt3__16__lessIvvEclB8ue170006ImmEEbRKT_RKT0_, symObjAddr: 0x6950, symBinAddr: 0x10000A2C4, symSize: 0x34 }
  - { offsetInCU: 0x117AD, offset: 0x117AD, size: 0x8, addend: 0x0, symName: __ZNKSt3__117__compressed_pairIPcNS_9allocatorIcEEE6secondB8ue170006Ev, symObjAddr: 0x6984, symBinAddr: 0x10000A2F8, symSize: 0x24 }
  - { offsetInCU: 0x117D3, offset: 0x117D3, size: 0x8, addend: 0x0, symName: __ZNSt3__123__libcpp_numeric_limitsIlLb1EE3maxB8ue170006Ev, symObjAddr: 0x69A8, symBinAddr: 0x10000A31C, symSize: 0x8 }
  - { offsetInCU: 0x117E7, offset: 0x117E7, size: 0x8, addend: 0x0, symName: __ZNSt3__117__compressed_pairIPcNS_9allocatorIcEEE6secondB8ue170006Ev, symObjAddr: 0x69B0, symBinAddr: 0x10000A324, symSize: 0x24 }
  - { offsetInCU: 0x1180D, offset: 0x1180D, size: 0x8, addend: 0x0, symName: __ZNSt3__117__compressed_pairIPcNS_9allocatorIcEEE5firstB8ue170006Ev, symObjAddr: 0x69D4, symBinAddr: 0x10000A348, symSize: 0x24 }
  - { offsetInCU: 0x11833, offset: 0x11833, size: 0x8, addend: 0x0, symName: __ZNSt3__122__compressed_pair_elemIPcLi0ELb0EE5__getB8ue170006Ev, symObjAddr: 0x69F8, symBinAddr: 0x10000A36C, symSize: 0x14 }
  - { offsetInCU: 0x11859, offset: 0x11859, size: 0x8, addend: 0x0, symName: __ZNKSt3__16vectorIcNS_9allocatorIcEEE31__annotate_contiguous_containerB8ue170006EPKvS5_S5_S5_, symObjAddr: 0x6A0C, symBinAddr: 0x10000A380, symSize: 0x20 }
  - { offsetInCU: 0x118AF, offset: 0x118AF, size: 0x8, addend: 0x0, symName: __ZNKSt3__16vectorIcNS_9allocatorIcEEE4dataB8ue170006Ev, symObjAddr: 0x6A2C, symBinAddr: 0x10000A3A0, symSize: 0x28 }
  - { offsetInCU: 0x118D5, offset: 0x118D5, size: 0x8, addend: 0x0, symName: __ZNKSt3__16vectorIcNS_9allocatorIcEEE8capacityB8ue170006Ev, symObjAddr: 0x6A54, symBinAddr: 0x10000A3C8, symSize: 0x38 }
  - { offsetInCU: 0x118FB, offset: 0x118FB, size: 0x8, addend: 0x0, symName: __ZNKSt3__16vectorIcNS_9allocatorIcEEE9__end_capB8ue170006Ev, symObjAddr: 0x6A8C, symBinAddr: 0x10000A400, symSize: 0x28 }
  - { offsetInCU: 0x11921, offset: 0x11921, size: 0x8, addend: 0x0, symName: __ZNKSt3__117__compressed_pairIPcNS_9allocatorIcEEE5firstB8ue170006Ev, symObjAddr: 0x6AB4, symBinAddr: 0x10000A428, symSize: 0x24 }
  - { offsetInCU: 0x11947, offset: 0x11947, size: 0x8, addend: 0x0, symName: __ZNKSt3__122__compressed_pair_elemIPcLi0ELb0EE5__getB8ue170006Ev, symObjAddr: 0x6AD8, symBinAddr: 0x10000A44C, symSize: 0x14 }
  - { offsetInCU: 0x11986, offset: 0x11986, size: 0x8, addend: 0x0, symName: __ZNSt3__16vectorIcNS_9allocatorIcEEE21_ConstructTransactionC1B8ue170006ERS3_m, symObjAddr: 0x6AEC, symBinAddr: 0x10000A460, symSize: 0x3C }
  - { offsetInCU: 0x119CE, offset: 0x119CE, size: 0x8, addend: 0x0, symName: __ZNSt3__16vectorIcNS_9allocatorIcEEE21_ConstructTransactionD1B8ue170006Ev, symObjAddr: 0x6BA8, symBinAddr: 0x10000A51C, symSize: 0x2C }
  - { offsetInCU: 0x119F8, offset: 0x119F8, size: 0x8, addend: 0x0, symName: __ZNSt3__16vectorIcNS_9allocatorIcEEE21_ConstructTransactionC2B8ue170006ERS3_m, symObjAddr: 0x6BD4, symBinAddr: 0x10000A548, symSize: 0x44 }
  - { offsetInCU: 0x11A59, offset: 0x11A59, size: 0x8, addend: 0x0, symName: __ZNSt3__14pairIPcS1_EC1B8ue170006ERKS1_S4_, symObjAddr: 0x6DAC, symBinAddr: 0x10000A720, symSize: 0x3C }
  - { offsetInCU: 0x11A9F, offset: 0x11A9F, size: 0x8, addend: 0x0, symName: __ZNSt3__14pairIPcS1_EC2B8ue170006ERKS1_S4_, symObjAddr: 0x6DE8, symBinAddr: 0x10000A75C, symSize: 0x34 }
  - { offsetInCU: 0x11AE5, offset: 0x11AE5, size: 0x8, addend: 0x0, symName: __ZNSt3__129_AllocatorDestroyRangeReverseINS_9allocatorIcEEPcEC1B8ue170006ERS2_RS3_S6_, symObjAddr: 0x6E68, symBinAddr: 0x10000A7DC, symSize: 0x44 }
  - { offsetInCU: 0x11B3C, offset: 0x11B3C, size: 0x8, addend: 0x0, symName: __ZNSt3__116allocator_traitsINS_9allocatorIcEEE9constructB8ue170006IcJRcEvEEvRS2_PT_DpOT0_, symObjAddr: 0x6EAC, symBinAddr: 0x10000A820, symSize: 0x34 }
  - { offsetInCU: 0x11B93, offset: 0x11B93, size: 0x8, addend: 0x0, symName: __ZNSt3__128__exception_guard_exceptionsINS_29_AllocatorDestroyRangeReverseINS_9allocatorIcEEPcEEE10__completeB8ue170006Ev, symObjAddr: 0x6EE0, symBinAddr: 0x10000A854, symSize: 0x1C }
  - { offsetInCU: 0x11BB9, offset: 0x11BB9, size: 0x8, addend: 0x0, symName: __ZNSt3__128__exception_guard_exceptionsINS_29_AllocatorDestroyRangeReverseINS_9allocatorIcEEPcEEED1B8ue170006Ev, symObjAddr: 0x6EFC, symBinAddr: 0x10000A870, symSize: 0x2C }
  - { offsetInCU: 0x11BE3, offset: 0x11BE3, size: 0x8, addend: 0x0, symName: __ZNSt3__128__exception_guard_exceptionsINS_29_AllocatorDestroyRangeReverseINS_9allocatorIcEEPcEEEC1B8ue170006ES5_, symObjAddr: 0x6F28, symBinAddr: 0x10000A89C, symSize: 0x34 }
  - { offsetInCU: 0x11C1C, offset: 0x11C1C, size: 0x8, addend: 0x0, symName: __ZNSt3__128__exception_guard_exceptionsINS_29_AllocatorDestroyRangeReverseINS_9allocatorIcEEPcEEEC2B8ue170006ES5_, symObjAddr: 0x6F5C, symBinAddr: 0x10000A8D0, symSize: 0x30 }
  - { offsetInCU: 0x11C55, offset: 0x11C55, size: 0x8, addend: 0x0, symName: __ZNSt3__129_AllocatorDestroyRangeReverseINS_9allocatorIcEEPcEC2B8ue170006ERS2_RS3_S6_, symObjAddr: 0x6F8C, symBinAddr: 0x10000A900, symSize: 0x38 }
  - { offsetInCU: 0x11CAC, offset: 0x11CAC, size: 0x8, addend: 0x0, symName: __ZNSt3__19allocatorIcE9constructB8ue170006IcJRcEEEvPT_DpOT0_, symObjAddr: 0x6FC4, symBinAddr: 0x10000A938, symSize: 0x28 }
  - { offsetInCU: 0x11D02, offset: 0x11D02, size: 0x8, addend: 0x0, symName: __ZNSt3__128__exception_guard_exceptionsINS_29_AllocatorDestroyRangeReverseINS_9allocatorIcEEPcEEED2B8ue170006Ev, symObjAddr: 0x6FEC, symBinAddr: 0x10000A960, symSize: 0x48 }
  - { offsetInCU: 0x11D2C, offset: 0x11D2C, size: 0x8, addend: 0x0, symName: __ZNKSt3__129_AllocatorDestroyRangeReverseINS_9allocatorIcEEPcEclB8ue170006Ev, symObjAddr: 0x7034, symBinAddr: 0x10000A9A8, symSize: 0x68 }
  - { offsetInCU: 0x11D52, offset: 0x11D52, size: 0x8, addend: 0x0, symName: __ZNSt3__116reverse_iteratorIPcEC1B8ue170006ES1_, symObjAddr: 0x710C, symBinAddr: 0x10000AA80, symSize: 0x34 }
  - { offsetInCU: 0x11D8A, offset: 0x11D8A, size: 0x8, addend: 0x0, symName: __ZNSt3__116allocator_traitsINS_9allocatorIcEEE7destroyB8ue170006IcvEEvRS2_PT_, symObjAddr: 0x7188, symBinAddr: 0x10000AAFC, symSize: 0x2C }
  - { offsetInCU: 0x11DC7, offset: 0x11DC7, size: 0x8, addend: 0x0, symName: __ZNSt3__116reverse_iteratorIPcEppB8ue170006Ev, symObjAddr: 0x71D8, symBinAddr: 0x10000AB4C, symSize: 0x20 }
  - { offsetInCU: 0x11DED, offset: 0x11DED, size: 0x8, addend: 0x0, symName: __ZNKSt3__116reverse_iteratorIPcE4baseB8ue170006Ev, symObjAddr: 0x71F8, symBinAddr: 0x10000AB6C, symSize: 0x18 }
  - { offsetInCU: 0x11E13, offset: 0x11E13, size: 0x8, addend: 0x0, symName: __ZNSt3__19allocatorIcE7destroyB8ue170006EPc, symObjAddr: 0x7210, symBinAddr: 0x10000AB84, symSize: 0x14 }
  - { offsetInCU: 0x11E4C, offset: 0x11E4C, size: 0x8, addend: 0x0, symName: __ZNSt3__119__to_address_helperINS_16reverse_iteratorIPcEEvE6__callB8ue170006ERKS3_, symObjAddr: 0x7224, symBinAddr: 0x10000AB98, symSize: 0x4C }
  - { offsetInCU: 0x11E6F, offset: 0x11E6F, size: 0x8, addend: 0x0, symName: __ZNKSt3__116reverse_iteratorIPcEptB8ue170006Ev, symObjAddr: 0x7270, symBinAddr: 0x10000ABE4, symSize: 0x24 }
  - { offsetInCU: 0x11E95, offset: 0x11E95, size: 0x8, addend: 0x0, symName: __ZNKSt3__116reverse_iteratorIPcEdeB8ue170006Ev, symObjAddr: 0x7294, symBinAddr: 0x10000AC08, symSize: 0x28 }
  - { offsetInCU: 0x11EC9, offset: 0x11EC9, size: 0x8, addend: 0x0, symName: __ZNSt3__116reverse_iteratorIPcEC2B8ue170006ES1_, symObjAddr: 0x72BC, symBinAddr: 0x10000AC30, symSize: 0x28 }
  - { offsetInCU: 0x11F01, offset: 0x11F01, size: 0x8, addend: 0x0, symName: __ZNSt3__16vectorIcNS_9allocatorIcEEE21_ConstructTransactionD2B8ue170006Ev, symObjAddr: 0x72E4, symBinAddr: 0x10000AC58, symSize: 0x20 }
  - { offsetInCU: 0x11F2B, offset: 0x11F2B, size: 0x8, addend: 0x0, symName: __ZNSt3__128__exception_guard_exceptionsINS_6vectorIcNS_9allocatorIcEEE16__destroy_vectorEED2B8ue170006Ev, symObjAddr: 0x7304, symBinAddr: 0x10000AC78, symSize: 0x48 }
  - { offsetInCU: 0x11F55, offset: 0x11F55, size: 0x8, addend: 0x0, symName: __ZNSt3__16vectorIcNS_9allocatorIcEEE16__destroy_vectorclB8ue170006Ev, symObjAddr: 0x734C, symBinAddr: 0x10000ACC0, symSize: 0x90 }
  - { offsetInCU: 0x11F7B, offset: 0x11F7B, size: 0x8, addend: 0x0, symName: __ZNSt3__16vectorIcNS_9allocatorIcEEE7__clearB8ue170006Ev, symObjAddr: 0x73DC, symBinAddr: 0x10000AD50, symSize: 0x28 }
  - { offsetInCU: 0x11FA1, offset: 0x11FA1, size: 0x8, addend: 0x0, symName: __ZNKSt3__16vectorIcNS_9allocatorIcEEE17__annotate_deleteB8ue170006Ev, symObjAddr: 0x7404, symBinAddr: 0x10000AD78, symSize: 0xB8 }
  - { offsetInCU: 0x11FC7, offset: 0x11FC7, size: 0x8, addend: 0x0, symName: __ZNSt3__116allocator_traitsINS_9allocatorIcEEE10deallocateB8ue170006ERS2_Pcm, symObjAddr: 0x74BC, symBinAddr: 0x10000AE30, symSize: 0x34 }
  - { offsetInCU: 0x12009, offset: 0x12009, size: 0x8, addend: 0x0, symName: __ZNSt3__16vectorIcNS_9allocatorIcEEE22__base_destruct_at_endB8ue170006EPc, symObjAddr: 0x74F0, symBinAddr: 0x10000AE64, symSize: 0xA0 }
  - { offsetInCU: 0x1204D, offset: 0x1204D, size: 0x8, addend: 0x0, symName: __ZNSt3__19allocatorIcE10deallocateB8ue170006EPcm, symObjAddr: 0x7590, symBinAddr: 0x10000AF04, symSize: 0x70 }
  - { offsetInCU: 0x1208F, offset: 0x1208F, size: 0x8, addend: 0x0, symName: __ZNSt3__16vectorIcNS_9allocatorIcEEED2B8ue170006Ev, symObjAddr: 0x7600, symBinAddr: 0x10000AF74, symSize: 0x3C }
  - { offsetInCU: 0x120B9, offset: 0x120B9, size: 0x8, addend: 0x0, symName: __ZNSt3__16vectorIcNS_9allocatorIcEEE13__move_assignERS3_NS_17integral_constantIbLb1EEE, symObjAddr: 0x763C, symBinAddr: 0x10000AFB0, symSize: 0x94 }
  - { offsetInCU: 0x120FC, offset: 0x120FC, size: 0x8, addend: 0x0, symName: __ZNSt3__16vectorIcNS_9allocatorIcEEE13__vdeallocateEv, symObjAddr: 0x76D0, symBinAddr: 0x10000B044, symSize: 0x94 }
  - { offsetInCU: 0x12124, offset: 0x12124, size: 0x8, addend: 0x0, symName: __ZNSt3__16vectorIcNS_9allocatorIcEEE19__move_assign_allocB8ue170006ERS3_, symObjAddr: 0x7764, symBinAddr: 0x10000B0D8, symSize: 0x2C }
  - { offsetInCU: 0x12159, offset: 0x12159, size: 0x8, addend: 0x0, symName: __ZNSt3__16vectorIcNS_9allocatorIcEEE5clearB8ue170006Ev, symObjAddr: 0x7790, symBinAddr: 0x10000B104, symSize: 0x44 }
  - { offsetInCU: 0x1218E, offset: 0x1218E, size: 0x8, addend: 0x0, symName: __ZNKSt3__16vectorIcNS_9allocatorIcEEE17__annotate_shrinkB8ue170006Em, symObjAddr: 0x77D4, symBinAddr: 0x10000B148, symSize: 0xB4 }
  - { offsetInCU: 0x121C3, offset: 0x121C3, size: 0x8, addend: 0x0, symName: __ZNSt3__16vectorIcNS_9allocatorIcEEE19__move_assign_allocB8ue170006ERS3_NS_17integral_constantIbLb1EEE, symObjAddr: 0x7888, symBinAddr: 0x10000B1FC, symSize: 0x38 }
...
